            ;-- entry0:
            ;-- section.CODE:
            ;-- eip:
            0x00401000      6a00           push 0                      ; [00] -r-x section size 4096 named CODE
            0x00401002      e8ff040000     call 0x401506
            0x00401007      a3ca204000     mov dword [0x4020ca], eax   ; [0x4020ca:4]=0
            0x0040100c      6a00           push 0
            0x0040100e      68f4204000     push 0x4020f4               ; "No need to disasm the code!"
            0x00401013      e8a6040000     call 0x4014be
            0x00401018      0bc0           or eax, eax
        ┌─< 0x0040101a      7401           je 0x40101d
        │   0x0040101c      c3             ret
        └─> 0x0040101d      c70564204000.  mov dword [0x402064], 0x4003 ; [0x402064:4]=0
            0x00401027      c70568204000.  mov dword [0x402068], sym.crackme.EXE_WndProc ; [0x402068:4]=0
            0x00401031      c7056c204000.  mov dword [0x40206c], 0     ; [0x40206c:4]=0
            0x0040103b      c70570204000.  mov dword [0x402070], 0     ; [0x402070:4]=0
            0x00401045      a1ca204000     mov eax, dword [0x4020ca]   ; [0x4020ca:4]=0
            0x0040104a      a374204000     mov dword [0x402074], eax   ; [0x402074:4]=0
            0x0040104f      6a64           push 0x64                   ; 'd' ; 100
            0x00401051      50             push eax
            0x00401052      e8d1030000     call 0x401428
            0x00401057      a378204000     mov dword [0x402078], eax   ; [0x402078:4]=0
            0x0040105c      68007f0000     push 0x7f00
            0x00401061      6a00           push 0
            0x00401063      e8a2030000     call 0x40140a
            0x00401068      a37c204000     mov dword [0x40207c], eax   ; [0x40207c:4]=0
            0x0040106d      c70580204000.  mov dword [0x402080], 5     ; [0x402080:4]=0
            0x00401077      c70584204000.  mov dword [0x402084], 0x402110 ; [0x402084:4]=0
            0x00401081      c70588204000.  mov dword [0x402088], 0x4020f4 ; [0x402088:4]=0
            0x0040108b      6864204000     push 0x402064               ; 'd @'
            0x00401090      e8f3030000     call 0x401488
            0x00401095      6a00           push 0
            0x00401097      ff35ca204000   push dword [0x4020ca]
            0x0040109d      6a00           push 0
            0x0040109f      6a00           push 0
            0x004010a1      6800800000     push 0x8000
            0x004010a6      6800800000     push 0x8000
            0x004010ab      6a6e           push 0x6e                   ; 'n' ; 110
            0x004010ad      68b4000000     push 0xb4                   ; 180
            0x004010b2      680000cf00     push 0xcf0000
            0x004010b7      68e7204000     push 0x4020e7               ; "CrackMe v1.0"
            0x004010bc      68f4204000     push 0x4020f4               ; "No need to disasm the code!"
            0x004010c1      6a00           push 0
            0x004010c3      e8cc030000     call 0x401494
            0x004010c8      a304204000     mov dword [0x402004], eax   ; [0x402004:4]=0
            0x004010cd      6a01           push 1                      ; 1
            0x004010cf      ff3504204000   push dword [0x402004]
            0x004010d5      e890030000     call 0x40146a
            0x004010da      ff3504204000   push dword [0x402004]
            0x004010e0      e89d030000     call 0x401482
            0x004010e5      6a01           push 1                      ; 1
            0x004010e7      6a00           push 0
            0x004010e9      ff7508         push dword [ebp + 8]
            0x004010ec      e85b030000     call 0x40144c
            0x004010f1      6a00           push 0
            0x004010f3      6a00           push 0
            0x004010f5      6a00           push 0
            0x004010f7      6848204000     push 0x402048               ; 'H @'
            0x004010fc      e8d5030000     call 0x4014d6
            0x00401101      663d0000       cmp ax, 0
            0x00401105      7416           je 0x40111d
            0x00401107      6848204000     push 0x402048               ; 'H @'
            0x0040110c      e84d030000     call 0x40145e
            0x00401111      6848204000     push 0x402048               ; 'H @'
            0x00401116      e88b030000     call 0x4014a6
            0x0040111b      ebd4           jmp 0x4010f1
            0x0040111d      ff3550204000   push dword [0x402050]       ; 'P @'
            0x00401123      e8ea030000     call 0x401512
            ;-- WndProc:
            0x00401128      c8000000       enter 0, 0
            0x0040112c      56             push esi
            0x0040112d      57             push edi
            0x0040112e      53             push ebx
            0x0040112f      837d0c02       cmp dword [ebp + 0xc], 2
            0x00401133      745e           je 0x401193
            0x00401135      817d0c040200.  cmp dword [ebp + 0xc], 0x204
            0x0040113c      7465           je 0x4011a3
            0x0040113e      90             nop
            0x0040113f      90             nop
            0x00401140      90             nop
            0x00401141      90             nop
            0x00401142      837d0c05       cmp dword [ebp + 0xc], 5
            0x00401146      745d           je 0x4011a5
            0x00401148      837d0c01       cmp dword [ebp + 0xc], 1
            0x0040114c      7428           je 0x401176
            0x0040114e      817d0c010200.  cmp dword [ebp + 0xc], 0x201
            0x00401155      744a           je 0x4011a1
            0x00401157      837d0c24       cmp dword [ebp + 0xc], 0x24
            0x0040115b      744f           je 0x4011ac
            0x0040115d      817d0c110100.  cmp dword [ebp + 0xc], 0x111
            0x00401164      746c           je 0x4011d2
            0x00401166      90             nop
            0x00401167      90             nop
            0x00401168      90             nop
            0x00401169      90             nop
            0x0040116a      eb14           jmp 0x401180
            0x0040116c      b800000000     mov eax, 0
            0x00401171      eb73           jmp 0x4011e6
            0x00401173      90             nop
            0x00401174      90             nop
            0x00401175      90             nop
            0x00401176      b800000000     mov eax, 0
            0x0040117b      eb69           jmp 0x4011e6
            0x0040117d      90             nop
            0x0040117e      90             nop
            0x0040117f      90             nop
            0x00401180      ff7514         push dword [ebp + 0x14]
            0x00401183      ff7510         push dword [ebp + 0x10]
            0x00401186      ff750c         push dword [ebp + 0xc]
            0x00401189      ff7508         push dword [ebp + 8]
            0x0040118c      e809030000     call 0x40149a
            0x00401191      eb53           jmp 0x4011e6
            0x00401193      6a00           push 0
            0x00401195      e8a6020000     call 0x401440
            0x0040119a      b800000000     mov eax, 0
            0x0040119f      eb45           jmp 0x4011e6
            0x004011a1      eb43           jmp 0x4011e6
            0x004011a3      eb41           jmp 0x4011e6
            0x004011a5      b800000000     mov eax, 0
            0x004011aa      eb3a           jmp 0x4011e6
            0x004011ac      8b5d14         mov ebx, dword [ebp + 0x14]
            0x004011af      c74318180100.  mov dword [ebx + 0x18], 0x118 ; [0x118:4]=-1 ; 280
            0x004011b6      c7431ca00000.  mov dword [ebx + 0x1c], 0xa0 ; [0xa0:4]=-1 ; 160
            0x004011bd      c74320180100.  mov dword [ebx + 0x20], 0x118 ; [0x118:4]=-1 ; 280
            0x004011c4      c74324a00000.  mov dword [ebx + 0x24], 0xa0 ; [0xa0:4]=-1 ; 160
            0x004011cb      b800000000     mov eax, 0
            0x004011d0      eb14           jmp 0x4011e6
            0x004011d2      837d1067       cmp dword [ebp + 0x10], 0x67
            0x004011d6      7415           je 0x4011ed
            0x004011d8      837d1065       cmp dword [ebp + 0x10], 0x65
            0x004011dc      74b5           je 0x401193
            0x004011de      837d1066       cmp dword [ebp + 0x10], 0x66
            0x004011e2      7425           je 0x401209
            0x004011e4      eb00           jmp 0x4011e6
            0x004011e6      5b             pop ebx
            0x004011e7      5f             pop edi
            0x004011e8      5e             pop esi
            0x004011e9      c9             leave
            0x004011ea      c21000         ret 0x10
            0x004011ed      6a00           push 0
            0x004011ef      680a134000     push 0x40130a
            0x004011f4      ff7508         push dword [ebp + 8]
            0x004011f7      681f214000     push 0x40211f               ; "DLG_ABOUT"
            0x004011fc      ff35ca204000   push dword [0x4020ca]
            0x00401202      e899020000     call 0x4014a0
            0x00401207      ebdd           jmp 0x4011e6
            0x00401209      6a00           push 0
            0x0040120b      6853124000     push 0x401253
            0x00401210      ff7508         push dword [ebp + 8]
            0x00401213      6815214000     push 0x402115               ; "DLG_REGIS"
            0x00401218      ff35ca204000   push dword [0x4020ca]
            0x0040121e      e87d020000     call 0x4014a0
            0x00401223      83f800         cmp eax, 0
            0x00401226      74be           je 0x4011e6
            0x00401228      688e214000     push 0x40218e
            0x0040122d      e84c010000     call 0x40137e
            0x00401232      50             push eax
            0x00401233      687e214000     push 0x40217e               ; '~!@'
            0x00401238      e89b010000     call 0x4013d8
            0x0040123d      83c404         add esp, 4
            0x00401240      58             pop eax
            0x00401241      3bc3           cmp eax, ebx
            0x00401243      7407           je 0x40124c
            0x00401245      e818010000     call 0x401362
            0x0040124a      eb9a           jmp 0x4011e6
            0x0040124c      e8fc000000     call 0x40134d
            0x00401251      eb93           jmp 0x4011e6
            0x00401253      c8000000       enter 0, 0
            0x00401257      53             push ebx
            0x00401258      56             push esi
            0x00401259      57             push edi
            0x0040125a      817d0c100100.  cmp dword [ebp + 0xc], 0x110
            0x00401261      7434           je 0x401297
            0x00401263      817d0c110100.  cmp dword [ebp + 0xc], 0x111
            0x0040126a      7435           je 0x4012a1
            0x0040126c      837d0c10       cmp dword [ebp + 0xc], 0x10
            0x00401270      0f8481000000   je 0x4012f7
            0x00401276      817d0c010200.  cmp dword [ebp + 0xc], 0x201
            0x0040127d      740c           je 0x40128b
            0x0040127f      b800000000     mov eax, 0
            0x00401284      5f             pop edi
            0x00401285      5e             pop esi
            0x00401286      5b             pop ebx
            0x00401287      c9             leave
            0x00401288      c21000         ret 0x10
            0x0040128b      6a01           push 1                      ; 1
            0x0040128d      6a00           push 0
            0x0040128f      ff7508         push dword [ebp + 8]
            0x00401292      e8b5010000     call 0x40144c
            0x00401297      ff7508         push dword [ebp + 8]
            0x0040129a      e895010000     call 0x401434
            0x0040129f      ebe3           jmp 0x401284
            0x004012a1      33c0           xor eax, eax
            0x004012a3      817d10eb0300.  cmp dword [ebp + 0x10], 0x3eb
            0x004012aa      744b           je 0x4012f7
            0x004012ac      817d10ea0300.  cmp dword [ebp + 0x10], 0x3ea
            0x004012b3      753b           jne 0x4012f0
            0x004012b5      6a0b           push 0xb                    ; 11
            0x004012b7      688e214000     push 0x40218e
            0x004012bc      68e8030000     push 0x3e8                  ; 1000
            0x004012c1      ff7508         push dword [ebp + 8]
            0x004012c4      e807020000     call 0x4014d0
            0x004012c9      83f801         cmp eax, 1                  ; 1
            0x004012cc      c74510eb0300.  mov dword [ebp + 0x10], 0x3eb ; 1003
            0x004012d3      72cc           jb 0x4012a1
            0x004012d5      6a0b           push 0xb                    ; 11
            0x004012d7      687e214000     push 0x40217e               ; '~!@'
            0x004012dc      68e9030000     push 0x3e9                  ; 1001
            0x004012e1      ff7508         push dword [ebp + 8]
            0x004012e4      e8e7010000     call 0x4014d0
            0x004012e9      b801000000     mov eax, 1
            0x004012ee      eb07           jmp 0x4012f7
            0x004012f0      b800000000     mov eax, 0
            0x004012f5      eb8d           jmp 0x401284
            0x004012f7      50             push eax
            0x004012f8      ff7508         push dword [ebp + 8]
            0x004012fb      e8b2010000     call 0x4014b2
            0x00401300      b801000000     mov eax, 1
            0x00401305      e97affffff     jmp 0x401284
            0x0040130a      c8000000       enter 0, 0
            0x0040130e      53             push ebx
            0x0040130f      56             push esi
            0x00401310      57             push edi
            0x00401311      817d0c110100.  cmp dword [ebp + 0xc], 0x111
            0x00401318      7412           je 0x40132c
            0x0040131a      837d0c10       cmp dword [ebp + 0xc], 0x10
            0x0040131e      7415           je 0x401335
            0x00401320      b800000000     mov eax, 0
            0x00401325      5f             pop edi
            0x00401326      5e             pop esi
            0x00401327      5b             pop ebx
            0x00401328      c9             leave
            0x00401329      c21000         ret 0x10
            0x0040132c      817d10f20300.  cmp dword [ebp + 0x10], 0x3f2
            0x00401333      7511           jne 0x401346
            0x00401335      6a00           push 0
            0x00401337      ff7508         push dword [ebp + 8]
            0x0040133a      e873010000     call 0x4014b2
            0x0040133f      b801000000     mov eax, 1
            0x00401344      ebdf           jmp 0x401325
            0x00401346      b800000000     mov eax, 0
            0x0040134b      ebd8           jmp 0x401325
            0x0040134d      6a30           push 0x30                   ; '0' ; 48
            0x0040134f      6829214000     push 0x402129               ; ')!@' ; "Good work!"
            0x00401354      6834214000     push 0x402134               ; '4!@' ; "Great work, mate!\rNow try the next CrackMe!"
            0x00401359      ff7508         push dword [ebp + 8]
            0x0040135c      e8d9000000     call 0x40143a
            0x00401361      c3             ret
            0x00401362      6a00           push 0
            0x00401364      e8ad000000     call 0x401416
            0x00401369      6a30           push 0x30                   ; '0' ; 48
            0x0040136b      6860214000     push 0x402160               ; '`!@' ; "No luck!"
            0x00401370      6869214000     push 0x402169               ; 'i!@' ; "No luck there, mate!"
            0x00401375      ff7508         push dword [ebp + 8]
            0x00401378      e8bd000000     call 0x40143a
            0x0040137d      c3             ret
            0x0040137e      8b742404       mov esi, dword [esp + 4]
            0x00401382      56             push esi
            0x00401383      8a06           mov al, byte [esi]
            0x00401385      84c0           test al, al
            0x00401387      7413           je 0x40139c
            0x00401389      3c41           cmp al, 0x41                ; 65
            0x0040138b      721f           jb 0x4013ac
            0x0040138d      3c5a           cmp al, 0x5a                ; 90
            0x0040138f      7303           jae 0x401394
            0x00401391      46             inc esi
            0x00401392      ebef           jmp 0x401383
            0x00401394      e839000000     call 0x4013d2
            0x00401399      46             inc esi
            0x0040139a      ebe7           jmp 0x401383
            0x0040139c      5e             pop esi
            0x0040139d      e820000000     call 0x4013c2
            0x004013a2      81f778560000   xor edi, 0x5678
            0x004013a8      8bc7           mov eax, edi
            0x004013aa      eb15           jmp 0x4013c1
            0x004013ac      5e             pop esi
            0x004013ad      6a30           push 0x30                   ; '0' ; 48
            0x004013af      6860214000     push 0x402160               ; '`!@' ; "No luck!"
            0x004013b4      6869214000     push 0x402169               ; 'i!@' ; "No luck there, mate!"
            0x004013b9      ff7508         push dword [ebp + 8]
            0x004013bc      e879000000     call 0x40143a
            0x004013c1      c3             ret
            0x004013c2      33ff           xor edi, edi
            0x004013c4      33db           xor ebx, ebx
            0x004013c6      8a1e           mov bl, byte [esi]
            0x004013c8      84db           test bl, bl
            0x004013ca      7405           je 0x4013d1
            0x004013cc      03fb           add edi, ebx
            0x004013ce      46             inc esi
            0x004013cf      ebf5           jmp 0x4013c6
            0x004013d1      c3             ret
            0x004013d2      2c20           sub al, 0x20                ; 32
            0x004013d4      8806           mov byte [esi], al
            0x004013d6      c3             ret
            0x004013d7      c3             ret
            0x004013d8      33c0           xor eax, eax
            0x004013da      33ff           xor edi, edi
            0x004013dc      33db           xor ebx, ebx
            0x004013de      8b742404       mov esi, dword [esp + 4]
            0x004013e2      b00a           mov al, 0xa
            0x004013e4      8a1e           mov bl, byte [esi]
            0x004013e6      84db           test bl, bl
            0x004013e8      740b           je 0x4013f5
            0x004013ea      80eb30         sub bl, 0x30                ; 48
            0x004013ed      0faff8         imul edi, eax
            0x004013f0      03fb           add edi, ebx
            0x004013f2      46             inc esi
            0x004013f3      ebed           jmp 0x4013e2
            0x004013f5      81f734120000   xor edi, 0x1234
            0x004013fb      8bdf           mov ebx, edi
            0x004013fd      c3             ret
            0x004013fe      ff2584314000   jmp dword [sym.imp.USER32.dll_KillTimer] ; 0x403184
            0x00401404      ff2588314000   jmp dword [sym.imp.USER32.dll_GetSystemMetrics] ; 0x403188
            0x0040140a      ff258c314000   jmp dword [sym.imp.USER32.dll_LoadCursorA] ; 0x40318c
            0x00401410      ff2590314000   jmp dword [sym.imp.USER32.dll_LoadAcceleratorsA] ; 0x403190
            0x00401416      ff2594314000   jmp dword [sym.imp.USER32.dll_MessageBeep] ; 0x403194
            0x0040141c      ff2598314000   jmp dword [sym.imp.USER32.dll_GetWindowRect] ; 0x403198
            0x00401422      ff259c314000   jmp dword [sym.imp.USER32.dll_LoadStringA] ; 0x40319c ; ",3"
            0x00401428      ff25a0314000   jmp dword [sym.imp.USER32.dll_LoadIconA] ; 0x4031a0 ; ":3"
            0x0040142e      ff25a4314000   jmp dword [sym.imp.USER32.dll_LoadBitmapA] ; 0x4031a4 ; "F3"
            0x00401434      ff25a8314000   jmp dword [sym.imp.USER32.dll_SetFocus] ; 0x4031a8 ; "T3"
            0x0040143a      ff25ac314000   jmp dword [sym.imp.USER32.dll_MessageBoxA] ; 0x4031ac ; "`3"
            0x00401440      ff25b0314000   jmp dword [sym.imp.USER32.dll_PostQuitMessage] ; 0x4031b0 ; "n3"
            0x00401446      ff25b4314000   jmp dword [sym.imp.USER32.dll_WinHelpA] ; 0x4031b4
            0x0040144c      ff25b8314000   jmp dword [sym.imp.USER32.dll_InvalidateRect] ; 0x4031b8
            0x00401452      ff25bc314000   jmp dword [sym.imp.USER32.dll_TranslateAcceleratorA] ; 0x4031bc
            0x00401458      ff25c0314000   jmp dword [sym.imp.USER32.dll_MoveWindow] ; 0x4031c0
            0x0040145e      ff25c4314000   jmp dword [sym.imp.USER32.dll_TranslateMessage] ; 0x4031c4
            0x00401464      ff25c8314000   jmp dword [sym.imp.USER32.dll_LoadMenuA] ; 0x4031c8
            0x0040146a      ff25cc314000   jmp dword [sym.imp.USER32.dll_ShowWindow] ; 0x4031cc
            0x00401470      ff25d0314000   jmp dword [sym.imp.USER32.dll_SendMessageA] ; 0x4031d0
            0x00401476      ff25d4314000   jmp dword [sym.imp.USER32.dll_SetTimer] ; 0x4031d4
            0x0040147c      ff25d8314000   jmp dword [sym.imp.USER32.dll_SetWindowPos] ; 0x4031d8
            0x00401482      ff25dc314000   jmp dword [sym.imp.USER32.dll_UpdateWindow] ; 0x4031dc
            0x00401488      ff25e0314000   jmp dword [sym.imp.USER32.dll_RegisterClassA] ; 0x4031e0 ; ".4"
            0x0040148e      ff25e4314000   jmp dword [sym.imp.USER32.dll_BeginPaint] ; 0x4031e4 ; "@4"
            0x00401494      ff25e8314000   jmp dword [sym.imp.USER32.dll_CreateWindowExA] ; 0x4031e8 ; "N4"
            0x0040149a      ff25ec314000   jmp dword [sym.imp.USER32.dll_DefWindowProcA] ; 0x4031ec ; "`4"
            0x004014a0      ff25f0314000   jmp dword [sym.imp.USER32.dll_DialogBoxParamA] ; 0x4031f0 ; "r4"
            0x004014a6      ff25f4314000   jmp dword [sym.imp.USER32.dll_DispatchMessageA] ; 0x4031f4
            0x004014ac      ff25f8314000   jmp dword [sym.imp.USER32.dll_DrawMenuBar] ; 0x4031f8
            0x004014b2      ff25fc314000   jmp dword [sym.imp.USER32.dll_EndDialog] ; 0x4031fc
            0x004014b8      ff2500324000   jmp dword [sym.imp.USER32.dll_EndPaint] ; 0x403200
            0x004014be      ff2504324000   jmp dword [sym.imp.USER32.dll_FindWindowA] ; 0x403204
            0x004014c4      ff2508324000   jmp dword [sym.imp.USER32.dll_GetDC] ; 0x403208
            0x004014ca      ff250c324000   jmp dword [sym.imp.USER32.dll_GetDlgItem] ; 0x40320c
            0x004014d0      ff2510324000   jmp dword [sym.imp.USER32.dll_GetDlgItemTextA] ; 0x403210
            0x004014d6      ff2514324000   jmp dword [sym.imp.USER32.dll_GetMessageA] ; 0x403214
            0x004014dc      ff251c324000   jmp dword [sym.imp.KERNEL32.dll_GetLocalTime] ; 0x40321c
            0x004014e2      ff2520324000   jmp dword [sym.imp.KERNEL32.dll_OpenFile] ; 0x403220
            0x004014e8      ff2524324000   jmp dword [sym.imp.KERNEL32.dll_GlobalFree] ; 0x403224
            0x004014ee      ff2528324000   jmp dword [sym.imp.KERNEL32.dll_GlobalAlloc] ; 0x403228 ; ",5"
            0x004014f4      ff252c324000   jmp dword [sym.imp.KERNEL32.dll_lstrlen] ; 0x40322c ; ":5"
            0x004014fa      ff2530324000   jmp dword [sym.imp.KERNEL32.dll_CloseHandle] ; 0x403230 ; "D5"
            0x00401500      ff2534324000   jmp dword [sym.imp.KERNEL32.dll_WriteFile] ; 0x403234 ; "R5"
            0x00401506      ff2538324000   jmp dword [sym.imp.KERNEL32.dll_GetModuleHandleA] ; 0x403238 ; "^5"
            0x0040150c      ff253c324000   jmp dword [sym.imp.KERNEL32.dll_ReadFile] ; 0x40323c ; "r5"
            0x00401512      ff2540324000   jmp dword [sym.imp.KERNEL32.dll_ExitProcess] ; 0x403240 ; "~5"
            0x00401518      ff2548324000   jmp dword [sym.imp.COMCTL32.DLL_InitCommonControls] ; 0x403248
            0x0040151e      ff254c324000   jmp dword [sym.imp.COMCTL32.DLL_CreateToolbarEx] ; 0x40324c
            0x00401524      ff2550324000   jmp dword [sym.imp.COMCTL32.DLL_CreateToolbar] ; 0x403250
            0x0040152a      ff2558324000   jmp dword [sym.imp.GDI32.dll_TextOutA] ; 0x403258
            0x00401530      ff255c324000   jmp dword [sym.imp.GDI32.dll_StartPage] ; 0x40325c
            0x00401536      ff2560324000   jmp dword [sym.imp.GDI32.dll_StartDocA] ; 0x403260
            0x0040153c      ff2564324000   jmp dword [sym.imp.GDI32.dll_GetTextMetricsA] ; 0x403264
            0x00401542      ff2568324000   jmp dword [sym.imp.GDI32.dll_GetStockObject] ; 0x403268
            0x00401548      ff256c324000   jmp dword [sym.imp.GDI32.dll_EndPage] ; 0x40326c
            0x0040154e      ff2570324000   jmp dword [sym.imp.GDI32.dll_EndDoc] ; 0x403270
            0x00401554      ff2574324000   jmp dword [sym.imp.GDI32.dll_DeleteObject] ; 0x403274 ; " 6"
            0x0040155a      ff2578324000   jmp dword [sym.imp.GDI32.dll_DeleteDC] ; 0x403278 ; "06"
            0x00401560      ff2580324000   jmp dword [sym.imp.COMDLG32.dll_GetSaveFileNameA] ; 0x403280 ; "<6"
            0x00401566      ff2584324000   jmp dword [sym.imp.COMDLG32.dll_GetOpenFileNameA] ; 0x403284 ; "P6"
            0x0040156c      ff2588324000   jmp dword [sym.imp.COMDLG32.dll_PrintDlgA] ; 0x403288 ; "d6"
            0x00401572      0000           add byte [eax], al
            0x00401574      0000           add byte [eax], al
            0x00401576      0000           add byte [eax], al
            0x00401578      0000           add byte [eax], al
            0x0040157a      0000           add byte [eax], al
            0x0040157c      0000           add byte [eax], al
            0x0040157e      0000           add byte [eax], al
            0x00401580      0000           add byte [eax], al
            0x00401582      0000           add byte [eax], al
            0x00401584      0000           add byte [eax], al
            0x00401586      0000           add byte [eax], al
            0x00401588      0000           add byte [eax], al
            0x0040158a      0000           add byte [eax], al
            0x0040158c      0000           add byte [eax], al
            0x0040158e      0000           add byte [eax], al
            0x00401590      0000           add byte [eax], al
            0x00401592      0000           add byte [eax], al
            0x00401594      0000           add byte [eax], al
            0x00401596      0000           add byte [eax], al
            0x00401598      0000           add byte [eax], al
            0x0040159a      0000           add byte [eax], al
            0x0040159c      0000           add byte [eax], al
            0x0040159e      0000           add byte [eax], al
            0x004015a0      0000           add byte [eax], al
            0x004015a2      0000           add byte [eax], al
            0x004015a4      0000           add byte [eax], al
            0x004015a6      0000           add byte [eax], al
            0x004015a8      0000           add byte [eax], al
            0x004015aa      0000           add byte [eax], al
            0x004015ac      0000           add byte [eax], al
            0x004015ae      0000           add byte [eax], al
            0x004015b0      0000           add byte [eax], al
            0x004015b2      0000           add byte [eax], al
            0x004015b4      0000           add byte [eax], al
            0x004015b6      0000           add byte [eax], al
            0x004015b8      0000           add byte [eax], al
            0x004015ba      0000           add byte [eax], al
            0x004015bc      0000           add byte [eax], al
            0x004015be      0000           add byte [eax], al
            0x004015c0      0000           add byte [eax], al
            0x004015c2      0000           add byte [eax], al
            0x004015c4      0000           add byte [eax], al
            0x004015c6      0000           add byte [eax], al
            0x004015c8      0000           add byte [eax], al
            0x004015ca      0000           add byte [eax], al
            0x004015cc      0000           add byte [eax], al
            0x004015ce      0000           add byte [eax], al
            0x004015d0      0000           add byte [eax], al
            0x004015d2      0000           add byte [eax], al
            0x004015d4      0000           add byte [eax], al
            0x004015d6      0000           add byte [eax], al
            0x004015d8      0000           add byte [eax], al
            0x004015da      0000           add byte [eax], al
            0x004015dc      0000           add byte [eax], al
            0x004015de      0000           add byte [eax], al
            0x004015e0      0000           add byte [eax], al
            0x004015e2      0000           add byte [eax], al
            0x004015e4      0000           add byte [eax], al
            0x004015e6      0000           add byte [eax], al
            0x004015e8      0000           add byte [eax], al
            0x004015ea      0000           add byte [eax], al
            0x004015ec      0000           add byte [eax], al
            0x004015ee      0000           add byte [eax], al
            0x004015f0      0000           add byte [eax], al
            0x004015f2      0000           add byte [eax], al
            0x004015f4      0000           add byte [eax], al
            0x004015f6      0000           add byte [eax], al
            0x004015f8      0000           add byte [eax], al
            0x004015fa      0000           add byte [eax], al
            0x004015fc      0000           add byte [eax], al
            0x004015fe      0000           add byte [eax], al
            0x00401600      0000           add byte [eax], al
            0x00401602      0000           add byte [eax], al
            0x00401604      0000           add byte [eax], al
            0x00401606      0000           add byte [eax], al
            0x00401608      0000           add byte [eax], al
            0x0040160a      0000           add byte [eax], al
            0x0040160c      0000           add byte [eax], al
            0x0040160e      0000           add byte [eax], al
            0x00401610      0000           add byte [eax], al
            0x00401612      0000           add byte [eax], al
            0x00401614      0000           add byte [eax], al
            0x00401616      0000           add byte [eax], al
            0x00401618      0000           add byte [eax], al
            0x0040161a      0000           add byte [eax], al
            0x0040161c      0000           add byte [eax], al
            0x0040161e      0000           add byte [eax], al
            0x00401620      0000           add byte [eax], al
            0x00401622      0000           add byte [eax], al
            0x00401624      0000           add byte [eax], al
            0x00401626      0000           add byte [eax], al
            0x00401628      0000           add byte [eax], al
            0x0040162a      0000           add byte [eax], al
            0x0040162c      0000           add byte [eax], al
            0x0040162e      0000           add byte [eax], al
            0x00401630      0000           add byte [eax], al
            0x00401632      0000           add byte [eax], al
            0x00401634      0000           add byte [eax], al
            0x00401636      0000           add byte [eax], al
            0x00401638      0000           add byte [eax], al
            0x0040163a      0000           add byte [eax], al
            0x0040163c      0000           add byte [eax], al
            0x0040163e      0000           add byte [eax], al
            0x00401640      0000           add byte [eax], al
            0x00401642      0000           add byte [eax], al
            0x00401644      0000           add byte [eax], al
            0x00401646      0000           add byte [eax], al
            0x00401648      0000           add byte [eax], al
            0x0040164a      0000           add byte [eax], al
            0x0040164c      0000           add byte [eax], al
            0x0040164e      0000           add byte [eax], al
            0x00401650      0000           add byte [eax], al
            0x00401652      0000           add byte [eax], al
            0x00401654      0000           add byte [eax], al
            0x00401656      0000           add byte [eax], al
            0x00401658      0000           add byte [eax], al
            0x0040165a      0000           add byte [eax], al
            0x0040165c      0000           add byte [eax], al
            0x0040165e      0000           add byte [eax], al
            0x00401660      0000           add byte [eax], al
            0x00401662      0000           add byte [eax], al
            0x00401664      0000           add byte [eax], al
            0x00401666      0000           add byte [eax], al
            0x00401668      0000           add byte [eax], al
            0x0040166a      0000           add byte [eax], al
            0x0040166c      0000           add byte [eax], al
            0x0040166e      0000           add byte [eax], al
            0x00401670      0000           add byte [eax], al
            0x00401672      0000           add byte [eax], al
            0x00401674      0000           add byte [eax], al
            0x00401676      0000           add byte [eax], al
            0x00401678      0000           add byte [eax], al
            0x0040167a      0000           add byte [eax], al
            0x0040167c      0000           add byte [eax], al
            0x0040167e      0000           add byte [eax], al
            0x00401680      0000           add byte [eax], al
            0x00401682      0000           add byte [eax], al
            0x00401684      0000           add byte [eax], al
            0x00401686      0000           add byte [eax], al
            0x00401688      0000           add byte [eax], al
            0x0040168a      0000           add byte [eax], al
            0x0040168c      0000           add byte [eax], al
            0x0040168e      0000           add byte [eax], al
            0x00401690      0000           add byte [eax], al
            0x00401692      0000           add byte [eax], al
            0x00401694      0000           add byte [eax], al
            0x00401696      0000           add byte [eax], al
            0x00401698      0000           add byte [eax], al
            0x0040169a      0000           add byte [eax], al
            0x0040169c      0000           add byte [eax], al
            0x0040169e      0000           add byte [eax], al
            0x004016a0      0000           add byte [eax], al
            0x004016a2      0000           add byte [eax], al
            0x004016a4      0000           add byte [eax], al
            0x004016a6      0000           add byte [eax], al
            0x004016a8      0000           add byte [eax], al
            0x004016aa      0000           add byte [eax], al
            0x004016ac      0000           add byte [eax], al
            0x004016ae      0000           add byte [eax], al
            0x004016b0      0000           add byte [eax], al
            0x004016b2      0000           add byte [eax], al
            0x004016b4      0000           add byte [eax], al
            0x004016b6      0000           add byte [eax], al
            0x004016b8      0000           add byte [eax], al
            0x004016ba      0000           add byte [eax], al
            0x004016bc      0000           add byte [eax], al
            0x004016be      0000           add byte [eax], al
            0x004016c0      0000           add byte [eax], al
            0x004016c2      0000           add byte [eax], al
            0x004016c4      0000           add byte [eax], al
            0x004016c6      0000           add byte [eax], al
            0x004016c8      0000           add byte [eax], al
            0x004016ca      0000           add byte [eax], al
            0x004016cc      0000           add byte [eax], al
            0x004016ce      0000           add byte [eax], al
            0x004016d0      0000           add byte [eax], al
            0x004016d2      0000           add byte [eax], al
            0x004016d4      0000           add byte [eax], al
            0x004016d6      0000           add byte [eax], al
            0x004016d8      0000           add byte [eax], al
            0x004016da      0000           add byte [eax], al
            0x004016dc      0000           add byte [eax], al
            0x004016de      0000           add byte [eax], al
            0x004016e0      0000           add byte [eax], al
            0x004016e2      0000           add byte [eax], al
            0x004016e4      0000           add byte [eax], al
            0x004016e6      0000           add byte [eax], al
            0x004016e8      0000           add byte [eax], al
            0x004016ea      0000           add byte [eax], al
            0x004016ec      0000           add byte [eax], al
            0x004016ee      0000           add byte [eax], al
            0x004016f0      0000           add byte [eax], al
            0x004016f2      0000           add byte [eax], al
            0x004016f4      0000           add byte [eax], al
            0x004016f6      0000           add byte [eax], al
            0x004016f8      0000           add byte [eax], al
            0x004016fa      0000           add byte [eax], al
            0x004016fc      0000           add byte [eax], al
            0x004016fe      0000           add byte [eax], al
            0x00401700      0000           add byte [eax], al
            0x00401702      0000           add byte [eax], al
            0x00401704      0000           add byte [eax], al
            0x00401706      0000           add byte [eax], al
            0x00401708      0000           add byte [eax], al
            0x0040170a      0000           add byte [eax], al
            0x0040170c      0000           add byte [eax], al
            0x0040170e      0000           add byte [eax], al
            0x00401710      0000           add byte [eax], al
            0x00401712      0000           add byte [eax], al
            0x00401714      0000           add byte [eax], al
            0x00401716      0000           add byte [eax], al
            0x00401718      0000           add byte [eax], al
            0x0040171a      0000           add byte [eax], al
            0x0040171c      0000           add byte [eax], al
            0x0040171e      0000           add byte [eax], al
            0x00401720      0000           add byte [eax], al
            0x00401722      0000           add byte [eax], al
            0x00401724      0000           add byte [eax], al
            0x00401726      0000           add byte [eax], al
            0x00401728      0000           add byte [eax], al
            0x0040172a      0000           add byte [eax], al
            0x0040172c      0000           add byte [eax], al
            0x0040172e      0000           add byte [eax], al
            0x00401730      0000           add byte [eax], al
            0x00401732      0000           add byte [eax], al
            0x00401734      0000           add byte [eax], al
            0x00401736      0000           add byte [eax], al
            0x00401738      0000           add byte [eax], al
            0x0040173a      0000           add byte [eax], al
            0x0040173c      0000           add byte [eax], al
            0x0040173e      0000           add byte [eax], al
            0x00401740      0000           add byte [eax], al
            0x00401742      0000           add byte [eax], al
            0x00401744      0000           add byte [eax], al
            0x00401746      0000           add byte [eax], al
            0x00401748      0000           add byte [eax], al
            0x0040174a      0000           add byte [eax], al
            0x0040174c      0000           add byte [eax], al
            0x0040174e      0000           add byte [eax], al
            0x00401750      0000           add byte [eax], al
            0x00401752      0000           add byte [eax], al
            0x00401754      0000           add byte [eax], al
            0x00401756      0000           add byte [eax], al
            0x00401758      0000           add byte [eax], al
            0x0040175a      0000           add byte [eax], al
            0x0040175c      0000           add byte [eax], al
            0x0040175e      0000           add byte [eax], al
            0x00401760      0000           add byte [eax], al
            0x00401762      0000           add byte [eax], al
            0x00401764      0000           add byte [eax], al
            0x00401766      0000           add byte [eax], al
            0x00401768      0000           add byte [eax], al
            0x0040176a      0000           add byte [eax], al
            0x0040176c      0000           add byte [eax], al
            0x0040176e      0000           add byte [eax], al
            0x00401770      0000           add byte [eax], al
            0x00401772      0000           add byte [eax], al
            0x00401774      0000           add byte [eax], al
            0x00401776      0000           add byte [eax], al
            0x00401778      0000           add byte [eax], al
            0x0040177a      0000           add byte [eax], al
            0x0040177c      0000           add byte [eax], al
            0x0040177e      0000           add byte [eax], al
            0x00401780      0000           add byte [eax], al
            0x00401782      0000           add byte [eax], al
            0x00401784      0000           add byte [eax], al
            0x00401786      0000           add byte [eax], al
            0x00401788      0000           add byte [eax], al
            0x0040178a      0000           add byte [eax], al
            0x0040178c      0000           add byte [eax], al
            0x0040178e      0000           add byte [eax], al
            0x00401790      0000           add byte [eax], al
            0x00401792      0000           add byte [eax], al
            0x00401794      0000           add byte [eax], al
            0x00401796      0000           add byte [eax], al
            0x00401798      0000           add byte [eax], al
            0x0040179a      0000           add byte [eax], al
            0x0040179c      0000           add byte [eax], al
            0x0040179e      0000           add byte [eax], al
            0x004017a0      0000           add byte [eax], al
            0x004017a2      0000           add byte [eax], al
            0x004017a4      0000           add byte [eax], al
            0x004017a6      0000           add byte [eax], al
            0x004017a8      0000           add byte [eax], al
            0x004017aa      0000           add byte [eax], al
            0x004017ac      0000           add byte [eax], al
            0x004017ae      0000           add byte [eax], al
            0x004017b0      0000           add byte [eax], al
            0x004017b2      0000           add byte [eax], al
            0x004017b4      0000           add byte [eax], al
            0x004017b6      0000           add byte [eax], al
            0x004017b8      0000           add byte [eax], al
            0x004017ba      0000           add byte [eax], al
            0x004017bc      0000           add byte [eax], al
            0x004017be      0000           add byte [eax], al
            0x004017c0      0000           add byte [eax], al
            0x004017c2      0000           add byte [eax], al
            0x004017c4      0000           add byte [eax], al
            0x004017c6      0000           add byte [eax], al
            0x004017c8      0000           add byte [eax], al
            0x004017ca      0000           add byte [eax], al
            0x004017cc      0000           add byte [eax], al
            0x004017ce      0000           add byte [eax], al
            0x004017d0      0000           add byte [eax], al
            0x004017d2      0000           add byte [eax], al
            0x004017d4      0000           add byte [eax], al
            0x004017d6      0000           add byte [eax], al
            0x004017d8      0000           add byte [eax], al
            0x004017da      0000           add byte [eax], al
            0x004017dc      0000           add byte [eax], al
            0x004017de      0000           add byte [eax], al
            0x004017e0      0000           add byte [eax], al
            0x004017e2      0000           add byte [eax], al
            0x004017e4      0000           add byte [eax], al
            0x004017e6      0000           add byte [eax], al
            0x004017e8      0000           add byte [eax], al
            0x004017ea      0000           add byte [eax], al
            0x004017ec      0000           add byte [eax], al
            0x004017ee      0000           add byte [eax], al
            0x004017f0      0000           add byte [eax], al
            0x004017f2      0000           add byte [eax], al
            0x004017f4      0000           add byte [eax], al
            0x004017f6      0000           add byte [eax], al
            0x004017f8      0000           add byte [eax], al
            0x004017fa      0000           add byte [eax], al
            0x004017fc      0000           add byte [eax], al
            0x004017fe      0000           add byte [eax], al
            0x00401800      0000           add byte [eax], al
            0x00401802      0000           add byte [eax], al
            0x00401804      0000           add byte [eax], al
            0x00401806      0000           add byte [eax], al
            0x00401808      0000           add byte [eax], al
            0x0040180a      0000           add byte [eax], al
            0x0040180c      0000           add byte [eax], al
            0x0040180e      0000           add byte [eax], al
            0x00401810      0000           add byte [eax], al
            0x00401812      0000           add byte [eax], al
            0x00401814      0000           add byte [eax], al
            0x00401816      0000           add byte [eax], al
            0x00401818      0000           add byte [eax], al
            0x0040181a      0000           add byte [eax], al
            0x0040181c      0000           add byte [eax], al
            0x0040181e      0000           add byte [eax], al
            0x00401820      0000           add byte [eax], al
            0x00401822      0000           add byte [eax], al
            0x00401824      0000           add byte [eax], al
            0x00401826      0000           add byte [eax], al
            0x00401828      0000           add byte [eax], al
            0x0040182a      0000           add byte [eax], al
            0x0040182c      0000           add byte [eax], al
            0x0040182e      0000           add byte [eax], al
            0x00401830      0000           add byte [eax], al
            0x00401832      0000           add byte [eax], al
            0x00401834      0000           add byte [eax], al
            0x00401836      0000           add byte [eax], al
            0x00401838      0000           add byte [eax], al
            0x0040183a      0000           add byte [eax], al
            0x0040183c      0000           add byte [eax], al
            0x0040183e      0000           add byte [eax], al
            0x00401840      0000           add byte [eax], al
            0x00401842      0000           add byte [eax], al
            0x00401844      0000           add byte [eax], al
            0x00401846      0000           add byte [eax], al
            0x00401848      0000           add byte [eax], al
            0x0040184a      0000           add byte [eax], al
            0x0040184c      0000           add byte [eax], al
            0x0040184e      0000           add byte [eax], al
            0x00401850      0000           add byte [eax], al
            0x00401852      0000           add byte [eax], al
            0x00401854      0000           add byte [eax], al
            0x00401856      0000           add byte [eax], al
            0x00401858      0000           add byte [eax], al
            0x0040185a      0000           add byte [eax], al
            0x0040185c      0000           add byte [eax], al
            0x0040185e      0000           add byte [eax], al
            0x00401860      0000           add byte [eax], al
            0x00401862      0000           add byte [eax], al
            0x00401864      0000           add byte [eax], al
            0x00401866      0000           add byte [eax], al
            0x00401868      0000           add byte [eax], al
            0x0040186a      0000           add byte [eax], al
            0x0040186c      0000           add byte [eax], al
            0x0040186e      0000           add byte [eax], al
            0x00401870      0000           add byte [eax], al
            0x00401872      0000           add byte [eax], al
            0x00401874      0000           add byte [eax], al
            0x00401876      0000           add byte [eax], al
            0x00401878      0000           add byte [eax], al
            0x0040187a      0000           add byte [eax], al
            0x0040187c      0000           add byte [eax], al
            0x0040187e      0000           add byte [eax], al
            0x00401880      0000           add byte [eax], al
            0x00401882      0000           add byte [eax], al
            0x00401884      0000           add byte [eax], al
            0x00401886      0000           add byte [eax], al
            0x00401888      0000           add byte [eax], al
            0x0040188a      0000           add byte [eax], al
            0x0040188c      0000           add byte [eax], al
            0x0040188e      0000           add byte [eax], al
            0x00401890      0000           add byte [eax], al
            0x00401892      0000           add byte [eax], al
            0x00401894      0000           add byte [eax], al
            0x00401896      0000           add byte [eax], al
            0x00401898      0000           add byte [eax], al
            0x0040189a      0000           add byte [eax], al
            0x0040189c      0000           add byte [eax], al
            0x0040189e      0000           add byte [eax], al
            0x004018a0      0000           add byte [eax], al
            0x004018a2      0000           add byte [eax], al
            0x004018a4      0000           add byte [eax], al
            0x004018a6      0000           add byte [eax], al
            0x004018a8      0000           add byte [eax], al
            0x004018aa      0000           add byte [eax], al
            0x004018ac      0000           add byte [eax], al
            0x004018ae      0000           add byte [eax], al
            0x004018b0      0000           add byte [eax], al
            0x004018b2      0000           add byte [eax], al
            0x004018b4      0000           add byte [eax], al
            0x004018b6      0000           add byte [eax], al
            0x004018b8      0000           add byte [eax], al
            0x004018ba      0000           add byte [eax], al
            0x004018bc      0000           add byte [eax], al
            0x004018be      0000           add byte [eax], al
            0x004018c0      0000           add byte [eax], al
            0x004018c2      0000           add byte [eax], al
            0x004018c4      0000           add byte [eax], al
            0x004018c6      0000           add byte [eax], al
            0x004018c8      0000           add byte [eax], al
            0x004018ca      0000           add byte [eax], al
            0x004018cc      0000           add byte [eax], al
            0x004018ce      0000           add byte [eax], al
            0x004018d0      0000           add byte [eax], al
            0x004018d2      0000           add byte [eax], al
            0x004018d4      0000           add byte [eax], al
            0x004018d6      0000           add byte [eax], al
            0x004018d8      0000           add byte [eax], al
            0x004018da      0000           add byte [eax], al
            0x004018dc      0000           add byte [eax], al
            0x004018de      0000           add byte [eax], al
            0x004018e0      0000           add byte [eax], al
            0x004018e2      0000           add byte [eax], al
            0x004018e4      0000           add byte [eax], al
            0x004018e6      0000           add byte [eax], al
            0x004018e8      0000           add byte [eax], al
            0x004018ea      0000           add byte [eax], al
            0x004018ec      0000           add byte [eax], al
            0x004018ee      0000           add byte [eax], al
            0x004018f0      0000           add byte [eax], al
            0x004018f2      0000           add byte [eax], al
            0x004018f4      0000           add byte [eax], al
            0x004018f6      0000           add byte [eax], al
            0x004018f8      0000           add byte [eax], al
            0x004018fa      0000           add byte [eax], al
            0x004018fc      0000           add byte [eax], al
            0x004018fe      0000           add byte [eax], al
            0x00401900      0000           add byte [eax], al
            0x00401902      0000           add byte [eax], al
            0x00401904      0000           add byte [eax], al
            0x00401906      0000           add byte [eax], al
            0x00401908      0000           add byte [eax], al
            0x0040190a      0000           add byte [eax], al
            0x0040190c      0000           add byte [eax], al
            0x0040190e      0000           add byte [eax], al
            0x00401910      0000           add byte [eax], al
            0x00401912      0000           add byte [eax], al
            0x00401914      0000           add byte [eax], al
            0x00401916      0000           add byte [eax], al
            0x00401918      0000           add byte [eax], al
            0x0040191a      0000           add byte [eax], al
            0x0040191c      0000           add byte [eax], al
            0x0040191e      0000           add byte [eax], al
            0x00401920      0000           add byte [eax], al
            0x00401922      0000           add byte [eax], al
            0x00401924      0000           add byte [eax], al
            0x00401926      0000           add byte [eax], al
            0x00401928      0000           add byte [eax], al
            0x0040192a      0000           add byte [eax], al
            0x0040192c      0000           add byte [eax], al
            0x0040192e      0000           add byte [eax], al
            0x00401930      0000           add byte [eax], al
            0x00401932      0000           add byte [eax], al
            0x00401934      0000           add byte [eax], al
            0x00401936      0000           add byte [eax], al
            0x00401938      0000           add byte [eax], al
            0x0040193a      0000           add byte [eax], al
            0x0040193c      0000           add byte [eax], al
            0x0040193e      0000           add byte [eax], al
            0x00401940      0000           add byte [eax], al
            0x00401942      0000           add byte [eax], al
            0x00401944      0000           add byte [eax], al
            0x00401946      0000           add byte [eax], al
            0x00401948      0000           add byte [eax], al
            0x0040194a      0000           add byte [eax], al
            0x0040194c      0000           add byte [eax], al
            0x0040194e      0000           add byte [eax], al
            0x00401950      0000           add byte [eax], al
            0x00401952      0000           add byte [eax], al
            0x00401954      0000           add byte [eax], al
            0x00401956      0000           add byte [eax], al
            0x00401958      0000           add byte [eax], al
            0x0040195a      0000           add byte [eax], al
            0x0040195c      0000           add byte [eax], al
            0x0040195e      0000           add byte [eax], al
            0x00401960      0000           add byte [eax], al
            0x00401962      0000           add byte [eax], al
            0x00401964      0000           add byte [eax], al
            0x00401966      0000           add byte [eax], al
            0x00401968      0000           add byte [eax], al
            0x0040196a      0000           add byte [eax], al
            0x0040196c      0000           add byte [eax], al
            0x0040196e      0000           add byte [eax], al
            0x00401970      0000           add byte [eax], al
            0x00401972      0000           add byte [eax], al
            0x00401974      0000           add byte [eax], al
            0x00401976      0000           add byte [eax], al
            0x00401978      0000           add byte [eax], al
            0x0040197a      0000           add byte [eax], al
            0x0040197c      0000           add byte [eax], al
            0x0040197e      0000           add byte [eax], al
            0x00401980      0000           add byte [eax], al
            0x00401982      0000           add byte [eax], al
            0x00401984      0000           add byte [eax], al
            0x00401986      0000           add byte [eax], al
            0x00401988      0000           add byte [eax], al
            0x0040198a      0000           add byte [eax], al
            0x0040198c      0000           add byte [eax], al
            0x0040198e      0000           add byte [eax], al
            0x00401990      0000           add byte [eax], al
            0x00401992      0000           add byte [eax], al
            0x00401994      0000           add byte [eax], al
            0x00401996      0000           add byte [eax], al
            0x00401998      0000           add byte [eax], al
            0x0040199a      0000           add byte [eax], al
            0x0040199c      0000           add byte [eax], al
            0x0040199e      0000           add byte [eax], al
            0x004019a0      0000           add byte [eax], al
            0x004019a2      0000           add byte [eax], al
            0x004019a4      0000           add byte [eax], al
            0x004019a6      0000           add byte [eax], al
            0x004019a8      0000           add byte [eax], al
            0x004019aa      0000           add byte [eax], al
            0x004019ac      0000           add byte [eax], al
            0x004019ae      0000           add byte [eax], al
            0x004019b0      0000           add byte [eax], al
            0x004019b2      0000           add byte [eax], al
            0x004019b4      0000           add byte [eax], al
            0x004019b6      0000           add byte [eax], al
            0x004019b8      0000           add byte [eax], al
            0x004019ba      0000           add byte [eax], al
            0x004019bc      0000           add byte [eax], al
            0x004019be      0000           add byte [eax], al
            0x004019c0      0000           add byte [eax], al
            0x004019c2      0000           add byte [eax], al
            0x004019c4      0000           add byte [eax], al
            0x004019c6      0000           add byte [eax], al
            0x004019c8      0000           add byte [eax], al
            0x004019ca      0000           add byte [eax], al
            0x004019cc      0000           add byte [eax], al
            0x004019ce      0000           add byte [eax], al
            0x004019d0      0000           add byte [eax], al
            0x004019d2      0000           add byte [eax], al
            0x004019d4      0000           add byte [eax], al
            0x004019d6      0000           add byte [eax], al
            0x004019d8      0000           add byte [eax], al
            0x004019da      0000           add byte [eax], al
            0x004019dc      0000           add byte [eax], al
            0x004019de      0000           add byte [eax], al
            0x004019e0      0000           add byte [eax], al
            0x004019e2      0000           add byte [eax], al
            0x004019e4      0000           add byte [eax], al
            0x004019e6      0000           add byte [eax], al
            0x004019e8      0000           add byte [eax], al
            0x004019ea      0000           add byte [eax], al
            0x004019ec      0000           add byte [eax], al
            0x004019ee      0000           add byte [eax], al
            0x004019f0      0000           add byte [eax], al
            0x004019f2      0000           add byte [eax], al
            0x004019f4      0000           add byte [eax], al
            0x004019f6      0000           add byte [eax], al
            0x004019f8      0000           add byte [eax], al
            0x004019fa      0000           add byte [eax], al
            0x004019fc      0000           add byte [eax], al
            0x004019fe      0000           add byte [eax], al
            0x00401a00      0000           add byte [eax], al
            0x00401a02      0000           add byte [eax], al
            0x00401a04      0000           add byte [eax], al
            0x00401a06      0000           add byte [eax], al
            0x00401a08      0000           add byte [eax], al
            0x00401a0a      0000           add byte [eax], al
            0x00401a0c      0000           add byte [eax], al
            0x00401a0e      0000           add byte [eax], al
            0x00401a10      0000           add byte [eax], al
            0x00401a12      0000           add byte [eax], al
            0x00401a14      0000           add byte [eax], al
            0x00401a16      0000           add byte [eax], al
            0x00401a18      0000           add byte [eax], al
            0x00401a1a      0000           add byte [eax], al
            0x00401a1c      0000           add byte [eax], al
            0x00401a1e      0000           add byte [eax], al
            0x00401a20      0000           add byte [eax], al
            0x00401a22      0000           add byte [eax], al
            0x00401a24      0000           add byte [eax], al
            0x00401a26      0000           add byte [eax], al
            0x00401a28      0000           add byte [eax], al
            0x00401a2a      0000           add byte [eax], al
            0x00401a2c      0000           add byte [eax], al
            0x00401a2e      0000           add byte [eax], al
            0x00401a30      0000           add byte [eax], al
            0x00401a32      0000           add byte [eax], al
            0x00401a34      0000           add byte [eax], al
            0x00401a36      0000           add byte [eax], al
            0x00401a38      0000           add byte [eax], al
            0x00401a3a      0000           add byte [eax], al
            0x00401a3c      0000           add byte [eax], al
            0x00401a3e      0000           add byte [eax], al
            0x00401a40      0000           add byte [eax], al
            0x00401a42      0000           add byte [eax], al
            0x00401a44      0000           add byte [eax], al
            0x00401a46      0000           add byte [eax], al
            0x00401a48      0000           add byte [eax], al
            0x00401a4a      0000           add byte [eax], al
            0x00401a4c      0000           add byte [eax], al
            0x00401a4e      0000           add byte [eax], al
            0x00401a50      0000           add byte [eax], al
            0x00401a52      0000           add byte [eax], al
            0x00401a54      0000           add byte [eax], al
            0x00401a56      0000           add byte [eax], al
            0x00401a58      0000           add byte [eax], al
            0x00401a5a      0000           add byte [eax], al
            0x00401a5c      0000           add byte [eax], al
            0x00401a5e      0000           add byte [eax], al
            0x00401a60      0000           add byte [eax], al
            0x00401a62      0000           add byte [eax], al
            0x00401a64      0000           add byte [eax], al
            0x00401a66      0000           add byte [eax], al
            0x00401a68      0000           add byte [eax], al
            0x00401a6a      0000           add byte [eax], al
            0x00401a6c      0000           add byte [eax], al
            0x00401a6e      0000           add byte [eax], al
            0x00401a70      0000           add byte [eax], al
            0x00401a72      0000           add byte [eax], al
            0x00401a74      0000           add byte [eax], al
            0x00401a76      0000           add byte [eax], al
            0x00401a78      0000           add byte [eax], al
            0x00401a7a      0000           add byte [eax], al
            0x00401a7c      0000           add byte [eax], al
            0x00401a7e      0000           add byte [eax], al
            0x00401a80      0000           add byte [eax], al
            0x00401a82      0000           add byte [eax], al
            0x00401a84      0000           add byte [eax], al
            0x00401a86      0000           add byte [eax], al
            0x00401a88      0000           add byte [eax], al
            0x00401a8a      0000           add byte [eax], al
            0x00401a8c      0000           add byte [eax], al
            0x00401a8e      0000           add byte [eax], al
            0x00401a90      0000           add byte [eax], al
            0x00401a92      0000           add byte [eax], al
            0x00401a94      0000           add byte [eax], al
            0x00401a96      0000           add byte [eax], al
            0x00401a98      0000           add byte [eax], al
            0x00401a9a      0000           add byte [eax], al
            0x00401a9c      0000           add byte [eax], al
            0x00401a9e      0000           add byte [eax], al
            0x00401aa0      0000           add byte [eax], al
            0x00401aa2      0000           add byte [eax], al
            0x00401aa4      0000           add byte [eax], al
            0x00401aa6      0000           add byte [eax], al
            0x00401aa8      0000           add byte [eax], al
            0x00401aaa      0000           add byte [eax], al
            0x00401aac      0000           add byte [eax], al
            0x00401aae      0000           add byte [eax], al
            0x00401ab0      0000           add byte [eax], al
            0x00401ab2      0000           add byte [eax], al
            0x00401ab4      0000           add byte [eax], al
            0x00401ab6      0000           add byte [eax], al
            0x00401ab8      0000           add byte [eax], al
            0x00401aba      0000           add byte [eax], al
            0x00401abc      0000           add byte [eax], al
            0x00401abe      0000           add byte [eax], al
            0x00401ac0      0000           add byte [eax], al
            0x00401ac2      0000           add byte [eax], al
            0x00401ac4      0000           add byte [eax], al
            0x00401ac6      0000           add byte [eax], al
            0x00401ac8      0000           add byte [eax], al
            0x00401aca      0000           add byte [eax], al
            0x00401acc      0000           add byte [eax], al
            0x00401ace      0000           add byte [eax], al
            0x00401ad0      0000           add byte [eax], al
            0x00401ad2      0000           add byte [eax], al
            0x00401ad4      0000           add byte [eax], al
            0x00401ad6      0000           add byte [eax], al
            0x00401ad8      0000           add byte [eax], al
            0x00401ada      0000           add byte [eax], al
            0x00401adc      0000           add byte [eax], al
            0x00401ade      0000           add byte [eax], al
            0x00401ae0      0000           add byte [eax], al
            0x00401ae2      0000           add byte [eax], al
            0x00401ae4      0000           add byte [eax], al
            0x00401ae6      0000           add byte [eax], al
            0x00401ae8      0000           add byte [eax], al
            0x00401aea      0000           add byte [eax], al
            0x00401aec      0000           add byte [eax], al
            0x00401aee      0000           add byte [eax], al
            0x00401af0      0000           add byte [eax], al
            0x00401af2      0000           add byte [eax], al
            0x00401af4      0000           add byte [eax], al
            0x00401af6      0000           add byte [eax], al
            0x00401af8      0000           add byte [eax], al
            0x00401afa      0000           add byte [eax], al
            0x00401afc      0000           add byte [eax], al
            0x00401afe      0000           add byte [eax], al
            0x00401b00      0000           add byte [eax], al
            0x00401b02      0000           add byte [eax], al
            0x00401b04      0000           add byte [eax], al
            0x00401b06      0000           add byte [eax], al
            0x00401b08      0000           add byte [eax], al
            0x00401b0a      0000           add byte [eax], al
            0x00401b0c      0000           add byte [eax], al
            0x00401b0e      0000           add byte [eax], al
            0x00401b10      0000           add byte [eax], al
            0x00401b12      0000           add byte [eax], al
            0x00401b14      0000           add byte [eax], al
            0x00401b16      0000           add byte [eax], al
            0x00401b18      0000           add byte [eax], al
            0x00401b1a      0000           add byte [eax], al
            0x00401b1c      0000           add byte [eax], al
            0x00401b1e      0000           add byte [eax], al
            0x00401b20      0000           add byte [eax], al
            0x00401b22      0000           add byte [eax], al
            0x00401b24      0000           add byte [eax], al
            0x00401b26      0000           add byte [eax], al
            0x00401b28      0000           add byte [eax], al
            0x00401b2a      0000           add byte [eax], al
            0x00401b2c      0000           add byte [eax], al
            0x00401b2e      0000           add byte [eax], al
            0x00401b30      0000           add byte [eax], al
            0x00401b32      0000           add byte [eax], al
            0x00401b34      0000           add byte [eax], al
            0x00401b36      0000           add byte [eax], al
            0x00401b38      0000           add byte [eax], al
            0x00401b3a      0000           add byte [eax], al
            0x00401b3c      0000           add byte [eax], al
            0x00401b3e      0000           add byte [eax], al
            0x00401b40      0000           add byte [eax], al
            0x00401b42      0000           add byte [eax], al
            0x00401b44      0000           add byte [eax], al
            0x00401b46      0000           add byte [eax], al
            0x00401b48      0000           add byte [eax], al
            0x00401b4a      0000           add byte [eax], al
            0x00401b4c      0000           add byte [eax], al
            0x00401b4e      0000           add byte [eax], al
            0x00401b50      0000           add byte [eax], al
            0x00401b52      0000           add byte [eax], al
            0x00401b54      0000           add byte [eax], al
            0x00401b56      0000           add byte [eax], al
            0x00401b58      0000           add byte [eax], al
            0x00401b5a      0000           add byte [eax], al
            0x00401b5c      0000           add byte [eax], al
            0x00401b5e      0000           add byte [eax], al
            0x00401b60      0000           add byte [eax], al
            0x00401b62      0000           add byte [eax], al
            0x00401b64      0000           add byte [eax], al
            0x00401b66      0000           add byte [eax], al
            0x00401b68      0000           add byte [eax], al
            0x00401b6a      0000           add byte [eax], al
            0x00401b6c      0000           add byte [eax], al
            0x00401b6e      0000           add byte [eax], al
            0x00401b70      0000           add byte [eax], al
            0x00401b72      0000           add byte [eax], al
            0x00401b74      0000           add byte [eax], al
            0x00401b76      0000           add byte [eax], al
            0x00401b78      0000           add byte [eax], al
            0x00401b7a      0000           add byte [eax], al
            0x00401b7c      0000           add byte [eax], al
            0x00401b7e      0000           add byte [eax], al
            0x00401b80      0000           add byte [eax], al
            0x00401b82      0000           add byte [eax], al
            0x00401b84      0000           add byte [eax], al
            0x00401b86      0000           add byte [eax], al
            0x00401b88      0000           add byte [eax], al
            0x00401b8a      0000           add byte [eax], al
            0x00401b8c      0000           add byte [eax], al
            0x00401b8e      0000           add byte [eax], al
            0x00401b90      0000           add byte [eax], al
            0x00401b92      0000           add byte [eax], al
            0x00401b94      0000           add byte [eax], al
            0x00401b96      0000           add byte [eax], al
            0x00401b98      0000           add byte [eax], al
            0x00401b9a      0000           add byte [eax], al
            0x00401b9c      0000           add byte [eax], al
            0x00401b9e      0000           add byte [eax], al
            0x00401ba0      0000           add byte [eax], al
            0x00401ba2      0000           add byte [eax], al
            0x00401ba4      0000           add byte [eax], al
            0x00401ba6      0000           add byte [eax], al
            0x00401ba8      0000           add byte [eax], al
            0x00401baa      0000           add byte [eax], al
            0x00401bac      0000           add byte [eax], al
            0x00401bae      0000           add byte [eax], al
            0x00401bb0      0000           add byte [eax], al
            0x00401bb2      0000           add byte [eax], al
            0x00401bb4      0000           add byte [eax], al
            0x00401bb6      0000           add byte [eax], al
            0x00401bb8      0000           add byte [eax], al
            0x00401bba      0000           add byte [eax], al
            0x00401bbc      0000           add byte [eax], al
            0x00401bbe      0000           add byte [eax], al
            0x00401bc0      0000           add byte [eax], al
            0x00401bc2      0000           add byte [eax], al
            0x00401bc4      0000           add byte [eax], al
            0x00401bc6      0000           add byte [eax], al
            0x00401bc8      0000           add byte [eax], al
            0x00401bca      0000           add byte [eax], al
            0x00401bcc      0000           add byte [eax], al
            0x00401bce      0000           add byte [eax], al
            0x00401bd0      0000           add byte [eax], al
            0x00401bd2      0000           add byte [eax], al
            0x00401bd4      0000           add byte [eax], al
            0x00401bd6      0000           add byte [eax], al
            0x00401bd8      0000           add byte [eax], al
            0x00401bda      0000           add byte [eax], al
            0x00401bdc      0000           add byte [eax], al
            0x00401bde      0000           add byte [eax], al
            0x00401be0      0000           add byte [eax], al
            0x00401be2      0000           add byte [eax], al
            0x00401be4      0000           add byte [eax], al
            0x00401be6      0000           add byte [eax], al
            0x00401be8      0000           add byte [eax], al
            0x00401bea      0000           add byte [eax], al
            0x00401bec      0000           add byte [eax], al
            0x00401bee      0000           add byte [eax], al
            0x00401bf0      0000           add byte [eax], al
            0x00401bf2      0000           add byte [eax], al
            0x00401bf4      0000           add byte [eax], al
            0x00401bf6      0000           add byte [eax], al
            0x00401bf8      0000           add byte [eax], al
            0x00401bfa      0000           add byte [eax], al
            0x00401bfc      0000           add byte [eax], al
            0x00401bfe      0000           add byte [eax], al
            0x00401c00      0000           add byte [eax], al
            0x00401c02      0000           add byte [eax], al
            0x00401c04      0000           add byte [eax], al
            0x00401c06      0000           add byte [eax], al
            0x00401c08      0000           add byte [eax], al
            0x00401c0a      0000           add byte [eax], al
            0x00401c0c      0000           add byte [eax], al
            0x00401c0e      0000           add byte [eax], al
            0x00401c10      0000           add byte [eax], al
            0x00401c12      0000           add byte [eax], al
            0x00401c14      0000           add byte [eax], al
            0x00401c16      0000           add byte [eax], al
            0x00401c18      0000           add byte [eax], al
            0x00401c1a      0000           add byte [eax], al
            0x00401c1c      0000           add byte [eax], al
            0x00401c1e      0000           add byte [eax], al
            0x00401c20      0000           add byte [eax], al
            0x00401c22      0000           add byte [eax], al
            0x00401c24      0000           add byte [eax], al
            0x00401c26      0000           add byte [eax], al
            0x00401c28      0000           add byte [eax], al
            0x00401c2a      0000           add byte [eax], al
            0x00401c2c      0000           add byte [eax], al
            0x00401c2e      0000           add byte [eax], al
            0x00401c30      0000           add byte [eax], al
            0x00401c32      0000           add byte [eax], al
            0x00401c34      0000           add byte [eax], al
            0x00401c36      0000           add byte [eax], al
            0x00401c38      0000           add byte [eax], al
            0x00401c3a      0000           add byte [eax], al
            0x00401c3c      0000           add byte [eax], al
            0x00401c3e      0000           add byte [eax], al
            0x00401c40      0000           add byte [eax], al
            0x00401c42      0000           add byte [eax], al
            0x00401c44      0000           add byte [eax], al
            0x00401c46      0000           add byte [eax], al
            0x00401c48      0000           add byte [eax], al
            0x00401c4a      0000           add byte [eax], al
            0x00401c4c      0000           add byte [eax], al
            0x00401c4e      0000           add byte [eax], al
            0x00401c50      0000           add byte [eax], al
            0x00401c52      0000           add byte [eax], al
            0x00401c54      0000           add byte [eax], al
            0x00401c56      0000           add byte [eax], al
            0x00401c58      0000           add byte [eax], al
            0x00401c5a      0000           add byte [eax], al
            0x00401c5c      0000           add byte [eax], al
            0x00401c5e      0000           add byte [eax], al
            0x00401c60      0000           add byte [eax], al
            0x00401c62      0000           add byte [eax], al
            0x00401c64      0000           add byte [eax], al
            0x00401c66      0000           add byte [eax], al
            0x00401c68      0000           add byte [eax], al
            0x00401c6a      0000           add byte [eax], al
            0x00401c6c      0000           add byte [eax], al
            0x00401c6e      0000           add byte [eax], al
            0x00401c70      0000           add byte [eax], al
            0x00401c72      0000           add byte [eax], al
            0x00401c74      0000           add byte [eax], al
            0x00401c76      0000           add byte [eax], al
            0x00401c78      0000           add byte [eax], al
            0x00401c7a      0000           add byte [eax], al
            0x00401c7c      0000           add byte [eax], al
            0x00401c7e      0000           add byte [eax], al
            0x00401c80      0000           add byte [eax], al
            0x00401c82      0000           add byte [eax], al
            0x00401c84      0000           add byte [eax], al
            0x00401c86      0000           add byte [eax], al
            0x00401c88      0000           add byte [eax], al
            0x00401c8a      0000           add byte [eax], al
            0x00401c8c      0000           add byte [eax], al
            0x00401c8e      0000           add byte [eax], al
            0x00401c90      0000           add byte [eax], al
            0x00401c92      0000           add byte [eax], al
            0x00401c94      0000           add byte [eax], al
            0x00401c96      0000           add byte [eax], al
            0x00401c98      0000           add byte [eax], al
            0x00401c9a      0000           add byte [eax], al
            0x00401c9c      0000           add byte [eax], al
            0x00401c9e      0000           add byte [eax], al
            0x00401ca0      0000           add byte [eax], al
            0x00401ca2      0000           add byte [eax], al
            0x00401ca4      0000           add byte [eax], al
            0x00401ca6      0000           add byte [eax], al
            0x00401ca8      0000           add byte [eax], al
            0x00401caa      0000           add byte [eax], al
            0x00401cac      0000           add byte [eax], al
            0x00401cae      0000           add byte [eax], al
            0x00401cb0      0000           add byte [eax], al
            0x00401cb2      0000           add byte [eax], al
            0x00401cb4      0000           add byte [eax], al
            0x00401cb6      0000           add byte [eax], al
            0x00401cb8      0000           add byte [eax], al
            0x00401cba      0000           add byte [eax], al
            0x00401cbc      0000           add byte [eax], al
            0x00401cbe      0000           add byte [eax], al
            0x00401cc0      0000           add byte [eax], al
            0x00401cc2      0000           add byte [eax], al
            0x00401cc4      0000           add byte [eax], al
            0x00401cc6      0000           add byte [eax], al
            0x00401cc8      0000           add byte [eax], al
            0x00401cca      0000           add byte [eax], al
            0x00401ccc      0000           add byte [eax], al
            0x00401cce      0000           add byte [eax], al
            0x00401cd0      0000           add byte [eax], al
            0x00401cd2      0000           add byte [eax], al
            0x00401cd4      0000           add byte [eax], al
            0x00401cd6      0000           add byte [eax], al
            0x00401cd8      0000           add byte [eax], al
            0x00401cda      0000           add byte [eax], al
            0x00401cdc      0000           add byte [eax], al
            0x00401cde      0000           add byte [eax], al
            0x00401ce0      0000           add byte [eax], al
            0x00401ce2      0000           add byte [eax], al
            0x00401ce4      0000           add byte [eax], al
            0x00401ce6      0000           add byte [eax], al
            0x00401ce8      0000           add byte [eax], al
            0x00401cea      0000           add byte [eax], al
            0x00401cec      0000           add byte [eax], al
            0x00401cee      0000           add byte [eax], al
            0x00401cf0      0000           add byte [eax], al
            0x00401cf2      0000           add byte [eax], al
            0x00401cf4      0000           add byte [eax], al
            0x00401cf6      0000           add byte [eax], al
            0x00401cf8      0000           add byte [eax], al
            0x00401cfa      0000           add byte [eax], al
            0x00401cfc      0000           add byte [eax], al
            0x00401cfe      0000           add byte [eax], al
            0x00401d00      0000           add byte [eax], al
            0x00401d02      0000           add byte [eax], al
            0x00401d04      0000           add byte [eax], al
            0x00401d06      0000           add byte [eax], al
            0x00401d08      0000           add byte [eax], al
            0x00401d0a      0000           add byte [eax], al
            0x00401d0c      0000           add byte [eax], al
            0x00401d0e      0000           add byte [eax], al
            0x00401d10      0000           add byte [eax], al
            0x00401d12      0000           add byte [eax], al
            0x00401d14      0000           add byte [eax], al
            0x00401d16      0000           add byte [eax], al
            0x00401d18      0000           add byte [eax], al
            0x00401d1a      0000           add byte [eax], al
            0x00401d1c      0000           add byte [eax], al
            0x00401d1e      0000           add byte [eax], al
            0x00401d20      0000           add byte [eax], al
            0x00401d22      0000           add byte [eax], al
            0x00401d24      0000           add byte [eax], al
            0x00401d26      0000           add byte [eax], al
            0x00401d28      0000           add byte [eax], al
            0x00401d2a      0000           add byte [eax], al
            0x00401d2c      0000           add byte [eax], al
            0x00401d2e      0000           add byte [eax], al
            0x00401d30      0000           add byte [eax], al
            0x00401d32      0000           add byte [eax], al
            0x00401d34      0000           add byte [eax], al
            0x00401d36      0000           add byte [eax], al
            0x00401d38      0000           add byte [eax], al
            0x00401d3a      0000           add byte [eax], al
            0x00401d3c      0000           add byte [eax], al
            0x00401d3e      0000           add byte [eax], al
            0x00401d40      0000           add byte [eax], al
            0x00401d42      0000           add byte [eax], al
            0x00401d44      0000           add byte [eax], al
            0x00401d46      0000           add byte [eax], al
            0x00401d48      0000           add byte [eax], al
            0x00401d4a      0000           add byte [eax], al
            0x00401d4c      0000           add byte [eax], al
            0x00401d4e      0000           add byte [eax], al
            0x00401d50      0000           add byte [eax], al
            0x00401d52      0000           add byte [eax], al
            0x00401d54      0000           add byte [eax], al
            0x00401d56      0000           add byte [eax], al
            0x00401d58      0000           add byte [eax], al
            0x00401d5a      0000           add byte [eax], al
            0x00401d5c      0000           add byte [eax], al
            0x00401d5e      0000           add byte [eax], al
            0x00401d60      0000           add byte [eax], al
            0x00401d62      0000           add byte [eax], al
            0x00401d64      0000           add byte [eax], al
            0x00401d66      0000           add byte [eax], al
            0x00401d68      0000           add byte [eax], al
            0x00401d6a      0000           add byte [eax], al
            0x00401d6c      0000           add byte [eax], al
            0x00401d6e      0000           add byte [eax], al
            0x00401d70      0000           add byte [eax], al
            0x00401d72      0000           add byte [eax], al
            0x00401d74      0000           add byte [eax], al
            0x00401d76      0000           add byte [eax], al
            0x00401d78      0000           add byte [eax], al
            0x00401d7a      0000           add byte [eax], al
            0x00401d7c      0000           add byte [eax], al
            0x00401d7e      0000           add byte [eax], al
            0x00401d80      0000           add byte [eax], al
            0x00401d82      0000           add byte [eax], al
            0x00401d84      0000           add byte [eax], al
            0x00401d86      0000           add byte [eax], al
            0x00401d88      0000           add byte [eax], al
            0x00401d8a      0000           add byte [eax], al
            0x00401d8c      0000           add byte [eax], al
            0x00401d8e      0000           add byte [eax], al
            0x00401d90      0000           add byte [eax], al
            0x00401d92      0000           add byte [eax], al
            0x00401d94      0000           add byte [eax], al
            0x00401d96      0000           add byte [eax], al
            0x00401d98      0000           add byte [eax], al
            0x00401d9a      0000           add byte [eax], al
            0x00401d9c      0000           add byte [eax], al
            0x00401d9e      0000           add byte [eax], al
            0x00401da0      0000           add byte [eax], al
            0x00401da2      0000           add byte [eax], al
            0x00401da4      0000           add byte [eax], al
            0x00401da6      0000           add byte [eax], al
            0x00401da8      0000           add byte [eax], al
            0x00401daa      0000           add byte [eax], al
            0x00401dac      0000           add byte [eax], al
            0x00401dae      0000           add byte [eax], al
            0x00401db0      0000           add byte [eax], al
            0x00401db2      0000           add byte [eax], al
            0x00401db4      0000           add byte [eax], al
            0x00401db6      0000           add byte [eax], al
            0x00401db8      0000           add byte [eax], al
            0x00401dba      0000           add byte [eax], al
            0x00401dbc      0000           add byte [eax], al
            0x00401dbe      0000           add byte [eax], al
            0x00401dc0      0000           add byte [eax], al
            0x00401dc2      0000           add byte [eax], al
            0x00401dc4      0000           add byte [eax], al
            0x00401dc6      0000           add byte [eax], al
            0x00401dc8      0000           add byte [eax], al
            0x00401dca      0000           add byte [eax], al
            0x00401dcc      0000           add byte [eax], al
            0x00401dce      0000           add byte [eax], al
            0x00401dd0      0000           add byte [eax], al
            0x00401dd2      0000           add byte [eax], al
            0x00401dd4      0000           add byte [eax], al
            0x00401dd6      0000           add byte [eax], al
            0x00401dd8      0000           add byte [eax], al
            0x00401dda      0000           add byte [eax], al
            0x00401ddc      0000           add byte [eax], al
            0x00401dde      0000           add byte [eax], al
            0x00401de0      0000           add byte [eax], al
            0x00401de2      0000           add byte [eax], al
            0x00401de4      0000           add byte [eax], al
            0x00401de6      0000           add byte [eax], al
            0x00401de8      0000           add byte [eax], al
            0x00401dea      0000           add byte [eax], al
            0x00401dec      0000           add byte [eax], al
            0x00401dee      0000           add byte [eax], al
            0x00401df0      0000           add byte [eax], al
            0x00401df2      0000           add byte [eax], al
            0x00401df4      0000           add byte [eax], al
            0x00401df6      0000           add byte [eax], al
            0x00401df8      0000           add byte [eax], al
            0x00401dfa      0000           add byte [eax], al
            0x00401dfc      0000           add byte [eax], al
            0x00401dfe      0000           add byte [eax], al
            0x00401e00      0000           add byte [eax], al
            0x00401e02      0000           add byte [eax], al
            0x00401e04      0000           add byte [eax], al
            0x00401e06      0000           add byte [eax], al
            0x00401e08      0000           add byte [eax], al
            0x00401e0a      0000           add byte [eax], al
            0x00401e0c      0000           add byte [eax], al
            0x00401e0e      0000           add byte [eax], al
            0x00401e10      0000           add byte [eax], al
            0x00401e12      0000           add byte [eax], al
            0x00401e14      0000           add byte [eax], al
            0x00401e16      0000           add byte [eax], al
            0x00401e18      0000           add byte [eax], al
            0x00401e1a      0000           add byte [eax], al
            0x00401e1c      0000           add byte [eax], al
            0x00401e1e      0000           add byte [eax], al
            0x00401e20      0000           add byte [eax], al
            0x00401e22      0000           add byte [eax], al
            0x00401e24      0000           add byte [eax], al
            0x00401e26      0000           add byte [eax], al
            0x00401e28      0000           add byte [eax], al
            0x00401e2a      0000           add byte [eax], al
            0x00401e2c      0000           add byte [eax], al
            0x00401e2e      0000           add byte [eax], al
            0x00401e30      0000           add byte [eax], al
            0x00401e32      0000           add byte [eax], al
            0x00401e34      0000           add byte [eax], al
            0x00401e36      0000           add byte [eax], al
            0x00401e38      0000           add byte [eax], al
            0x00401e3a      0000           add byte [eax], al
            0x00401e3c      0000           add byte [eax], al
            0x00401e3e      0000           add byte [eax], al
            0x00401e40      0000           add byte [eax], al
            0x00401e42      0000           add byte [eax], al
            0x00401e44      0000           add byte [eax], al
            0x00401e46      0000           add byte [eax], al
            0x00401e48      0000           add byte [eax], al
            0x00401e4a      0000           add byte [eax], al
            0x00401e4c      0000           add byte [eax], al
            0x00401e4e      0000           add byte [eax], al
            0x00401e50      0000           add byte [eax], al
            0x00401e52      0000           add byte [eax], al
            0x00401e54      0000           add byte [eax], al
            0x00401e56      0000           add byte [eax], al
            0x00401e58      0000           add byte [eax], al
            0x00401e5a      0000           add byte [eax], al
            0x00401e5c      0000           add byte [eax], al
            0x00401e5e      0000           add byte [eax], al
            0x00401e60      0000           add byte [eax], al
            0x00401e62      0000           add byte [eax], al
            0x00401e64      0000           add byte [eax], al
            0x00401e66      0000           add byte [eax], al
            0x00401e68      0000           add byte [eax], al
            0x00401e6a      0000           add byte [eax], al
            0x00401e6c      0000           add byte [eax], al
            0x00401e6e      0000           add byte [eax], al
            0x00401e70      0000           add byte [eax], al
            0x00401e72      0000           add byte [eax], al
            0x00401e74      0000           add byte [eax], al
            0x00401e76      0000           add byte [eax], al
            0x00401e78      0000           add byte [eax], al
            0x00401e7a      0000           add byte [eax], al
            0x00401e7c      0000           add byte [eax], al
            0x00401e7e      0000           add byte [eax], al
            0x00401e80      0000           add byte [eax], al
            0x00401e82      0000           add byte [eax], al
            0x00401e84      0000           add byte [eax], al
            0x00401e86      0000           add byte [eax], al
            0x00401e88      0000           add byte [eax], al
            0x00401e8a      0000           add byte [eax], al
            0x00401e8c      0000           add byte [eax], al
            0x00401e8e      0000           add byte [eax], al
            0x00401e90      0000           add byte [eax], al
            0x00401e92      0000           add byte [eax], al
            0x00401e94      0000           add byte [eax], al
            0x00401e96      0000           add byte [eax], al
            0x00401e98      0000           add byte [eax], al
            0x00401e9a      0000           add byte [eax], al
            0x00401e9c      0000           add byte [eax], al
            0x00401e9e      0000           add byte [eax], al
            0x00401ea0      0000           add byte [eax], al
            0x00401ea2      0000           add byte [eax], al
            0x00401ea4      0000           add byte [eax], al
            0x00401ea6      0000           add byte [eax], al
            0x00401ea8      0000           add byte [eax], al
            0x00401eaa      0000           add byte [eax], al
            0x00401eac      0000           add byte [eax], al
            0x00401eae      0000           add byte [eax], al
            0x00401eb0      0000           add byte [eax], al
            0x00401eb2      0000           add byte [eax], al
            0x00401eb4      0000           add byte [eax], al
            0x00401eb6      0000           add byte [eax], al
            0x00401eb8      0000           add byte [eax], al
            0x00401eba      0000           add byte [eax], al
            0x00401ebc      0000           add byte [eax], al
            0x00401ebe      0000           add byte [eax], al
            0x00401ec0      0000           add byte [eax], al
            0x00401ec2      0000           add byte [eax], al
            0x00401ec4      0000           add byte [eax], al
            0x00401ec6      0000           add byte [eax], al
            0x00401ec8      0000           add byte [eax], al
            0x00401eca      0000           add byte [eax], al
            0x00401ecc      0000           add byte [eax], al
            0x00401ece      0000           add byte [eax], al
            0x00401ed0      0000           add byte [eax], al
            0x00401ed2      0000           add byte [eax], al
            0x00401ed4      0000           add byte [eax], al
            0x00401ed6      0000           add byte [eax], al
            0x00401ed8      0000           add byte [eax], al
            0x00401eda      0000           add byte [eax], al
            0x00401edc      0000           add byte [eax], al
            0x00401ede      0000           add byte [eax], al
            0x00401ee0      0000           add byte [eax], al
            0x00401ee2      0000           add byte [eax], al
            0x00401ee4      0000           add byte [eax], al
            0x00401ee6      0000           add byte [eax], al
            0x00401ee8      0000           add byte [eax], al
            0x00401eea      0000           add byte [eax], al
            0x00401eec      0000           add byte [eax], al
            0x00401eee      0000           add byte [eax], al
            0x00401ef0      0000           add byte [eax], al
            0x00401ef2      0000           add byte [eax], al
            0x00401ef4      0000           add byte [eax], al
            0x00401ef6      0000           add byte [eax], al
            0x00401ef8      0000           add byte [eax], al
            0x00401efa      0000           add byte [eax], al
            0x00401efc      0000           add byte [eax], al
            0x00401efe      0000           add byte [eax], al
            0x00401f00      0000           add byte [eax], al
            0x00401f02      0000           add byte [eax], al
            0x00401f04      0000           add byte [eax], al
            0x00401f06      0000           add byte [eax], al
            0x00401f08      0000           add byte [eax], al
            0x00401f0a      0000           add byte [eax], al
            0x00401f0c      0000           add byte [eax], al
            0x00401f0e      0000           add byte [eax], al
            0x00401f10      0000           add byte [eax], al
            0x00401f12      0000           add byte [eax], al
            0x00401f14      0000           add byte [eax], al
            0x00401f16      0000           add byte [eax], al
            0x00401f18      0000           add byte [eax], al
            0x00401f1a      0000           add byte [eax], al
            0x00401f1c      0000           add byte [eax], al
            0x00401f1e      0000           add byte [eax], al
            0x00401f20      0000           add byte [eax], al
            0x00401f22      0000           add byte [eax], al
            0x00401f24      0000           add byte [eax], al
            0x00401f26      0000           add byte [eax], al
            0x00401f28      0000           add byte [eax], al
            0x00401f2a      0000           add byte [eax], al
            0x00401f2c      0000           add byte [eax], al
            0x00401f2e      0000           add byte [eax], al
            0x00401f30      0000           add byte [eax], al
            0x00401f32      0000           add byte [eax], al
            0x00401f34      0000           add byte [eax], al
            0x00401f36      0000           add byte [eax], al
            0x00401f38      0000           add byte [eax], al
            0x00401f3a      0000           add byte [eax], al
            0x00401f3c      0000           add byte [eax], al
            0x00401f3e      0000           add byte [eax], al
            0x00401f40      0000           add byte [eax], al
            0x00401f42      0000           add byte [eax], al
            0x00401f44      0000           add byte [eax], al
            0x00401f46      0000           add byte [eax], al
            0x00401f48      0000           add byte [eax], al
            0x00401f4a      0000           add byte [eax], al
            0x00401f4c      0000           add byte [eax], al
            0x00401f4e      0000           add byte [eax], al
            0x00401f50      0000           add byte [eax], al
            0x00401f52      0000           add byte [eax], al
            0x00401f54      0000           add byte [eax], al
            0x00401f56      0000           add byte [eax], al
            0x00401f58      0000           add byte [eax], al
            0x00401f5a      0000           add byte [eax], al
            0x00401f5c      0000           add byte [eax], al
            0x00401f5e      0000           add byte [eax], al
            0x00401f60      0000           add byte [eax], al
            0x00401f62      0000           add byte [eax], al
            0x00401f64      0000           add byte [eax], al
            0x00401f66      0000           add byte [eax], al
            0x00401f68      0000           add byte [eax], al
            0x00401f6a      0000           add byte [eax], al
            0x00401f6c      0000           add byte [eax], al
            0x00401f6e      0000           add byte [eax], al
            0x00401f70      0000           add byte [eax], al
            0x00401f72      0000           add byte [eax], al
            0x00401f74      0000           add byte [eax], al
            0x00401f76      0000           add byte [eax], al
            0x00401f78      0000           add byte [eax], al
            0x00401f7a      0000           add byte [eax], al
            0x00401f7c      0000           add byte [eax], al
            0x00401f7e      0000           add byte [eax], al
            0x00401f80      0000           add byte [eax], al
            0x00401f82      0000           add byte [eax], al
            0x00401f84      0000           add byte [eax], al
            0x00401f86      0000           add byte [eax], al
            0x00401f88      0000           add byte [eax], al
            0x00401f8a      0000           add byte [eax], al
            0x00401f8c      0000           add byte [eax], al
            0x00401f8e      0000           add byte [eax], al
            0x00401f90      0000           add byte [eax], al
            0x00401f92      0000           add byte [eax], al
            0x00401f94      0000           add byte [eax], al
            0x00401f96      0000           add byte [eax], al
            0x00401f98      0000           add byte [eax], al
            0x00401f9a      0000           add byte [eax], al
            0x00401f9c      0000           add byte [eax], al
            0x00401f9e      0000           add byte [eax], al
            0x00401fa0      0000           add byte [eax], al
            0x00401fa2      0000           add byte [eax], al
            0x00401fa4      0000           add byte [eax], al
            0x00401fa6      0000           add byte [eax], al
            0x00401fa8      0000           add byte [eax], al
            0x00401faa      0000           add byte [eax], al
            0x00401fac      0000           add byte [eax], al
            0x00401fae      0000           add byte [eax], al
            0x00401fb0      0000           add byte [eax], al
            0x00401fb2      0000           add byte [eax], al
            0x00401fb4      0000           add byte [eax], al
            0x00401fb6      0000           add byte [eax], al
            0x00401fb8      0000           add byte [eax], al
            0x00401fba      0000           add byte [eax], al
            0x00401fbc      0000           add byte [eax], al
            0x00401fbe      0000           add byte [eax], al
            0x00401fc0      0000           add byte [eax], al
            0x00401fc2      0000           add byte [eax], al
            0x00401fc4      0000           add byte [eax], al
            0x00401fc6      0000           add byte [eax], al
            0x00401fc8      0000           add byte [eax], al
            0x00401fca      0000           add byte [eax], al
            0x00401fcc      0000           add byte [eax], al
            0x00401fce      0000           add byte [eax], al
            0x00401fd0      0000           add byte [eax], al
            0x00401fd2      0000           add byte [eax], al
            0x00401fd4      0000           add byte [eax], al
            0x00401fd6      0000           add byte [eax], al
            0x00401fd8      0000           add byte [eax], al
            0x00401fda      0000           add byte [eax], al
            0x00401fdc      0000           add byte [eax], al
            0x00401fde      0000           add byte [eax], al
            0x00401fe0      0000           add byte [eax], al
            0x00401fe2      0000           add byte [eax], al
            0x00401fe4      0000           add byte [eax], al
            0x00401fe6      0000           add byte [eax], al
            0x00401fe8      0000           add byte [eax], al
            0x00401fea      0000           add byte [eax], al
            0x00401fec      0000           add byte [eax], al
            0x00401fee      0000           add byte [eax], al
            0x00401ff0      0000           add byte [eax], al
            0x00401ff2      0000           add byte [eax], al
            0x00401ff4      0000           add byte [eax], al
            0x00401ff6      0000           add byte [eax], al
            0x00401ff8      0000           add byte [eax], al
            0x00401ffa      0000           add byte [eax], al
            0x00401ffc      0000           add byte [eax], al
            0x00401ffe      0000           add byte [eax], al
            ;-- section.DATA:
            0x00402000      0000           add byte [eax], al          ; [01] -rw- section size 4096 named DATA
            0x00402002      0000           add byte [eax], al
            0x00402004      0000           add byte [eax], al
            0x00402006      0000           add byte [eax], al
            0x00402008      0000           add byte [eax], al
            0x0040200a      0000           add byte [eax], al
            0x0040200c      0000           add byte [eax], al
            0x0040200e      0000           add byte [eax], al
            0x00402010      0000           add byte [eax], al
            0x00402012      0000           add byte [eax], al
            0x00402014      0000           add byte [eax], al
            0x00402016      0000           add byte [eax], al
            0x00402018      0000           add byte [eax], al
            0x0040201a      0000           add byte [eax], al
            0x0040201c      0000           add byte [eax], al
            0x0040201e      0000           add byte [eax], al
            0x00402020      0000           add byte [eax], al
            0x00402022      0000           add byte [eax], al
            0x00402024      0000           add byte [eax], al
            0x00402026      0000           add byte [eax], al
            0x00402028      0000           add byte [eax], al
            0x0040202a      0000           add byte [eax], al
            0x0040202c      0000           add byte [eax], al
            0x0040202e      0000           add byte [eax], al
            0x00402030      0000           add byte [eax], al
            0x00402032      0000           add byte [eax], al
            0x00402034      0000           add byte [eax], al
            0x00402036      0000           add byte [eax], al
            0x00402038      0000           add byte [eax], al
            0x0040203a      0000           add byte [eax], al
            0x0040203c      0000           add byte [eax], al
            0x0040203e      0000           add byte [eax], al
            0x00402040      0000           add byte [eax], al
            0x00402042      0000           add byte [eax], al
            0x00402044      0000           add byte [eax], al
            0x00402046      0000           add byte [eax], al
            0x00402048      0000           add byte [eax], al
            0x0040204a      0000           add byte [eax], al
            0x0040204c      0000           add byte [eax], al
            0x0040204e      0000           add byte [eax], al
            0x00402050      0000           add byte [eax], al
            0x00402052      0000           add byte [eax], al
            0x00402054      0000           add byte [eax], al
            0x00402056      0000           add byte [eax], al
            0x00402058      0000           add byte [eax], al
            0x0040205a      0000           add byte [eax], al
            0x0040205c      0000           add byte [eax], al
            0x0040205e      0000           add byte [eax], al
            0x00402060      0000           add byte [eax], al
            0x00402062      0000           add byte [eax], al
            0x00402064      0000           add byte [eax], al
            0x00402066      0000           add byte [eax], al
            0x00402068      0000           add byte [eax], al
            0x0040206a      0000           add byte [eax], al
            0x0040206c      0000           add byte [eax], al
            0x0040206e      0000           add byte [eax], al
            0x00402070      0000           add byte [eax], al
            0x00402072      0000           add byte [eax], al
            0x00402074      0000           add byte [eax], al
            0x00402076      0000           add byte [eax], al
            0x00402078      0000           add byte [eax], al
            0x0040207a      0000           add byte [eax], al
            0x0040207c      0000           add byte [eax], al
            0x0040207e      0000           add byte [eax], al
            0x00402080      0000           add byte [eax], al
            0x00402082      0000           add byte [eax], al
            0x00402084      0000           add byte [eax], al
            0x00402086      0000           add byte [eax], al
            0x00402088      0000           add byte [eax], al
            0x0040208a      0000           add byte [eax], al
            0x0040208c      0000           add byte [eax], al
            0x0040208e      0000           add byte [eax], al
            0x00402090      0000           add byte [eax], al
            0x00402092      0000           add byte [eax], al
            0x00402094      0000           add byte [eax], al
            0x00402096      0000           add byte [eax], al
            0x00402098      0000           add byte [eax], al
            0x0040209a      0000           add byte [eax], al
            0x0040209c      0000           add byte [eax], al
            0x0040209e      0000           add byte [eax], al
            0x004020a0      0000           add byte [eax], al
            0x004020a2      0000           add byte [eax], al
            0x004020a4      0000           add byte [eax], al
            0x004020a6      0000           add byte [eax], al
            0x004020a8      0000           add byte [eax], al
            0x004020aa      0000           add byte [eax], al
            0x004020ac      0000           add byte [eax], al
            0x004020ae      0000           add byte [eax], al
            0x004020b0      0000           add byte [eax], al
            0x004020b2      0000           add byte [eax], al
            0x004020b4      0000           add byte [eax], al
            0x004020b6      0000           add byte [eax], al
            0x004020b8      0000           add byte [eax], al
            0x004020ba      0000           add byte [eax], al
            0x004020bc      0000           add byte [eax], al
            0x004020be      0000           add byte [eax], al
            0x004020c0      0000           add byte [eax], al
            0x004020c2      0000           add byte [eax], al
            0x004020c4      0000           add byte [eax], al
            0x004020c6      0000           add byte [eax], al
            0x004020c8      0000           add byte [eax], al
            0x004020ca      0000           add byte [eax], al
            0x004020cc      0000           add byte [eax], al
            0x004020ce      0000           add byte [eax], al
            0x004020d0      0000           add byte [eax], al
            0x004020d2      0000           add byte [eax], al
            0x004020d4      0000           add byte [eax], al
            0x004020d6      54             push esp
            0x004020d7      7279           jb 0x402152
            0x004020d9      20746f20       and byte [edi + ebp*2 + 0x20], dh
            0x004020dd      637261         arpl word [edx + 0x61], si
            0x004020e0      636b20         arpl word [ebx + 0x20], bp
            0x004020e3      6d             insd dword es:[edi], dx
            0x004020e4      652100         and dword gs:[eax], eax
            0x004020e7      43             inc ebx
            0x004020e8      7261           jb 0x40214b
            0x004020ea      636b4d         arpl word [ebx + 0x4d], bp
            0x004020ed      65207631       and byte gs:[esi + 0x31], dh
            0x004020f1      2e3000         xor byte cs:[eax], al
            0x004020f4      4e             dec esi
            0x004020f5      6f             outsd dx, dword [esi]
            0x004020f6      206e65         and byte [esi + 0x65], ch
            0x004020f9      65             invalid
            0x004020fa      6420746f20     and byte fs:[edi + ebp*2 + 0x20], dh
            0x004020ff      64697361736d.  imul esi, dword fs:[ebx + 0x61], 0x74206d73
            0x00402107      686520636f     push 0x6f632065             ; 'e co'
            0x0040210c      64652100       and dword gs:[eax], eax
            0x00402110      4d             dec ebp
            0x00402111      45             inc ebp
            0x00402112      4e             dec esi
            0x00402113      55             push ebp
            0x00402114      00444c47       add byte [esp + ecx*2 + 0x47], al
            0x00402118      5f             pop edi
            0x00402119      52             push edx
            0x0040211a      45             inc ebp
            0x0040211b      47             inc edi
            0x0040211c      49             dec ecx
            0x0040211d      53             push ebx
            0x0040211e      00444c47       add byte [esp + ecx*2 + 0x47], al
            0x00402122      5f             pop edi
            0x00402123      41             inc ecx
            0x00402124      42             inc edx
            0x00402125      4f             dec edi
            0x00402126      55             push ebp
            0x00402127      54             push esp
            0x00402128      00476f         add byte [edi + 0x6f], al
            0x0040212b      6f             outsd dx, dword [esi]
            0x0040212c      6420776f       and byte fs:[edi + 0x6f], dh
            0x00402130      726b           jb 0x40219d
            0x00402132      2100           and dword [eax], eax
            0x00402134      47             inc edi
            0x00402135      7265           jb 0x40219c
            0x00402137      61             popal
            0x00402138      7420           je 0x40215a
            0x0040213a      776f           ja 0x4021ab
            0x0040213c      726b           jb 0x4021a9
            0x0040213e      2c20           sub al, 0x20                ; 32
            0x00402140      6d             insd dword es:[edi], dx
            0x00402141      61             popal
            0x00402142      7465           je 0x4021a9
            0x00402144      210d4e6f7720   and dword [0x20776f4e], ecx ; [0x20776f4e:4]=-1
            0x0040214a      7472           je 0x4021be
            0x0040214c      7920           jns 0x40216e
            0x0040214e      7468           je 0x4021b8
            0x00402150      65206e65       and byte gs:[esi + 0x65], ch
            0x00402154      7874           js 0x4021ca
            0x00402156      204372         and byte [ebx + 0x72], al
            0x00402159      61             popal
            0x0040215a      636b4d         arpl word [ebx + 0x4d], bp
            0x0040215d      652100         and dword gs:[eax], eax
            0x00402160      4e             dec esi
            0x00402161      6f             outsd dx, dword [esi]
            0x00402162      206c7563       and byte [ebp + esi*2 + 0x63], ch
            0x00402166      6b2100         imul esp, dword [ecx], 0
            0x00402169      4e             dec esi
            0x0040216a      6f             outsd dx, dword [esi]
            0x0040216b      206c7563       and byte [ebp + esi*2 + 0x63], ch
            0x0040216f      6b2074         imul esp, dword [eax], 0x74
            0x00402172      686572652c     push 0x2c657265             ; 'ere,'
            0x00402177      206d61         and byte [ebp + 0x61], ch
            0x0040217a      7465           je 0x4021e1
            0x0040217c      2100           and dword [eax], eax
            0x0040217e      0000           add byte [eax], al
            0x00402180      0000           add byte [eax], al
            0x00402182      0000           add byte [eax], al
            0x00402184      0000           add byte [eax], al
            0x00402186      0000           add byte [eax], al
            0x00402188      0000           add byte [eax], al
            0x0040218a      0000           add byte [eax], al
            0x0040218c      0000           add byte [eax], al
            0x0040218e      0000           add byte [eax], al
            0x00402190      0000           add byte [eax], al
            0x00402192      0000           add byte [eax], al
            0x00402194      0000           add byte [eax], al
            0x00402196      0000           add byte [eax], al
            0x00402198      0000           add byte [eax], al
            0x0040219a      0000           add byte [eax], al
            0x0040219c      0000           add byte [eax], al
            0x0040219e      0000           add byte [eax], al
            0x004021a0      0000           add byte [eax], al
            0x004021a2      0000           add byte [eax], al
            0x004021a4      0000           add byte [eax], al
            0x004021a6      0000           add byte [eax], al
            0x004021a8      0000           add byte [eax], al
            0x004021aa      0000           add byte [eax], al
            0x004021ac      0000           add byte [eax], al
            0x004021ae      0000           add byte [eax], al
            0x004021b0      0000           add byte [eax], al
            0x004021b2      0000           add byte [eax], al
            0x004021b4      0000           add byte [eax], al
            0x004021b6      0000           add byte [eax], al
            0x004021b8      0000           add byte [eax], al
            0x004021ba      0000           add byte [eax], al
            0x004021bc      0000           add byte [eax], al
            0x004021be      0000           add byte [eax], al
            0x004021c0      0000           add byte [eax], al
            0x004021c2      0000           add byte [eax], al
            0x004021c4      0000           add byte [eax], al
            0x004021c6      0000           add byte [eax], al
            0x004021c8      0000           add byte [eax], al
            0x004021ca      0000           add byte [eax], al
            0x004021cc      0000           add byte [eax], al
            0x004021ce      0000           add byte [eax], al
            0x004021d0      0000           add byte [eax], al
            0x004021d2      0000           add byte [eax], al
            0x004021d4      0000           add byte [eax], al
            0x004021d6      0000           add byte [eax], al
            0x004021d8      0000           add byte [eax], al
            0x004021da      0000           add byte [eax], al
            0x004021dc      0000           add byte [eax], al
            0x004021de      0000           add byte [eax], al
            0x004021e0      0000           add byte [eax], al
            0x004021e2      0000           add byte [eax], al
            0x004021e4      0000           add byte [eax], al
            0x004021e6      0000           add byte [eax], al
            0x004021e8      0000           add byte [eax], al
            0x004021ea      0000           add byte [eax], al
            0x004021ec      0000           add byte [eax], al
            0x004021ee      0000           add byte [eax], al
            0x004021f0      0000           add byte [eax], al
            0x004021f2      0000           add byte [eax], al
            0x004021f4      0000           add byte [eax], al
            0x004021f6      0000           add byte [eax], al
            0x004021f8      0000           add byte [eax], al
            0x004021fa      0000           add byte [eax], al
            0x004021fc      0000           add byte [eax], al
            0x004021fe      0000           add byte [eax], al
            0x00402200      0000           add byte [eax], al
            0x00402202      0000           add byte [eax], al
            0x00402204      0000           add byte [eax], al
            0x00402206      0000           add byte [eax], al
            0x00402208      0000           add byte [eax], al
            0x0040220a      0000           add byte [eax], al
            0x0040220c      0000           add byte [eax], al
            0x0040220e      0000           add byte [eax], al
            0x00402210      0000           add byte [eax], al
            0x00402212      0000           add byte [eax], al
            0x00402214      0000           add byte [eax], al
            0x00402216      0000           add byte [eax], al
            0x00402218      0000           add byte [eax], al
            0x0040221a      0000           add byte [eax], al
            0x0040221c      0000           add byte [eax], al
            0x0040221e      0000           add byte [eax], al
            0x00402220      0000           add byte [eax], al
            0x00402222      0000           add byte [eax], al
            0x00402224      0000           add byte [eax], al
            0x00402226      0000           add byte [eax], al
            0x00402228      0000           add byte [eax], al
            0x0040222a      0000           add byte [eax], al
            0x0040222c      0000           add byte [eax], al
            0x0040222e      0000           add byte [eax], al
            0x00402230      0000           add byte [eax], al
            0x00402232      0000           add byte [eax], al
            0x00402234      0000           add byte [eax], al
            0x00402236      0000           add byte [eax], al
            0x00402238      0000           add byte [eax], al
            0x0040223a      0000           add byte [eax], al
            0x0040223c      0000           add byte [eax], al
            0x0040223e      0000           add byte [eax], al
            0x00402240      0000           add byte [eax], al
            0x00402242      0000           add byte [eax], al
            0x00402244      0000           add byte [eax], al
            0x00402246      0000           add byte [eax], al
            0x00402248      0000           add byte [eax], al
            0x0040224a      0000           add byte [eax], al
            0x0040224c      0000           add byte [eax], al
            0x0040224e      0000           add byte [eax], al
            0x00402250      0000           add byte [eax], al
            0x00402252      0000           add byte [eax], al
            0x00402254      0000           add byte [eax], al
            0x00402256      0000           add byte [eax], al
            0x00402258      0000           add byte [eax], al
            0x0040225a      0000           add byte [eax], al
            0x0040225c      0000           add byte [eax], al
            0x0040225e      0000           add byte [eax], al
            0x00402260      0000           add byte [eax], al
            0x00402262      0000           add byte [eax], al
            0x00402264      0000           add byte [eax], al
            0x00402266      0000           add byte [eax], al
            0x00402268      0000           add byte [eax], al
            0x0040226a      0000           add byte [eax], al
            0x0040226c      0000           add byte [eax], al
            0x0040226e      0000           add byte [eax], al
            0x00402270      0000           add byte [eax], al
            0x00402272      0000           add byte [eax], al
            0x00402274      0000           add byte [eax], al
            0x00402276      0000           add byte [eax], al
            0x00402278      0000           add byte [eax], al
            0x0040227a      0000           add byte [eax], al
            0x0040227c      0000           add byte [eax], al
            0x0040227e      0000           add byte [eax], al
            0x00402280      0000           add byte [eax], al
            0x00402282      0000           add byte [eax], al
            0x00402284      0000           add byte [eax], al
            0x00402286      0000           add byte [eax], al
            0x00402288      0000           add byte [eax], al
            0x0040228a      0000           add byte [eax], al
            0x0040228c      0000           add byte [eax], al
            0x0040228e      0000           add byte [eax], al
            0x00402290      0000           add byte [eax], al
            0x00402292      0000           add byte [eax], al
            0x00402294      0000           add byte [eax], al
            0x00402296      0000           add byte [eax], al
            0x00402298      0000           add byte [eax], al
            0x0040229a      0000           add byte [eax], al
            0x0040229c      0000           add byte [eax], al
            0x0040229e      0000           add byte [eax], al
            0x004022a0      0000           add byte [eax], al
            0x004022a2      0000           add byte [eax], al
            0x004022a4      0000           add byte [eax], al
            0x004022a6      0000           add byte [eax], al
            0x004022a8      0000           add byte [eax], al
            0x004022aa      0000           add byte [eax], al
            0x004022ac      0000           add byte [eax], al
            0x004022ae      0000           add byte [eax], al
            0x004022b0      0000           add byte [eax], al
            0x004022b2      0000           add byte [eax], al
            0x004022b4      0000           add byte [eax], al
            0x004022b6      0000           add byte [eax], al
            0x004022b8      0000           add byte [eax], al
            0x004022ba      0000           add byte [eax], al
            0x004022bc      0000           add byte [eax], al
            0x004022be      0000           add byte [eax], al
            0x004022c0      0000           add byte [eax], al
            0x004022c2      0000           add byte [eax], al
            0x004022c4      0000           add byte [eax], al
            0x004022c6      0000           add byte [eax], al
            0x004022c8      0000           add byte [eax], al
            0x004022ca      0000           add byte [eax], al
            0x004022cc      0000           add byte [eax], al
            0x004022ce      0000           add byte [eax], al
            0x004022d0      0000           add byte [eax], al
            0x004022d2      0000           add byte [eax], al
            0x004022d4      0000           add byte [eax], al
            0x004022d6      0000           add byte [eax], al
            0x004022d8      0000           add byte [eax], al
            0x004022da      0000           add byte [eax], al
            0x004022dc      0000           add byte [eax], al
            0x004022de      0000           add byte [eax], al
            0x004022e0      0000           add byte [eax], al
            0x004022e2      0000           add byte [eax], al
            0x004022e4      0000           add byte [eax], al
            0x004022e6      0000           add byte [eax], al
            0x004022e8      0000           add byte [eax], al
            0x004022ea      0000           add byte [eax], al
            0x004022ec      0000           add byte [eax], al
            0x004022ee      0000           add byte [eax], al
            0x004022f0      0000           add byte [eax], al
            0x004022f2      0000           add byte [eax], al
            0x004022f4      0000           add byte [eax], al
            0x004022f6      0000           add byte [eax], al
            0x004022f8      0000           add byte [eax], al
            0x004022fa      0000           add byte [eax], al
            0x004022fc      0000           add byte [eax], al
            0x004022fe      0000           add byte [eax], al
            0x00402300      0000           add byte [eax], al
            0x00402302      0000           add byte [eax], al
            0x00402304      0000           add byte [eax], al
            0x00402306      0000           add byte [eax], al
            0x00402308      0000           add byte [eax], al
            0x0040230a      0000           add byte [eax], al
            0x0040230c      0000           add byte [eax], al
            0x0040230e      0000           add byte [eax], al
            0x00402310      0000           add byte [eax], al
            0x00402312      0000           add byte [eax], al
            0x00402314      0000           add byte [eax], al
            0x00402316      0000           add byte [eax], al
            0x00402318      0000           add byte [eax], al
            0x0040231a      0000           add byte [eax], al
            0x0040231c      0000           add byte [eax], al
            0x0040231e      0000           add byte [eax], al
            0x00402320      0000           add byte [eax], al
            0x00402322      0000           add byte [eax], al
            0x00402324      0000           add byte [eax], al
            0x00402326      0000           add byte [eax], al
            0x00402328      0000           add byte [eax], al
            0x0040232a      0000           add byte [eax], al
            0x0040232c      0000           add byte [eax], al
            0x0040232e      0000           add byte [eax], al
            0x00402330      0000           add byte [eax], al
            0x00402332      0000           add byte [eax], al
            0x00402334      0000           add byte [eax], al
            0x00402336      0000           add byte [eax], al
            0x00402338      0000           add byte [eax], al
            0x0040233a      0000           add byte [eax], al
            0x0040233c      0000           add byte [eax], al
            0x0040233e      0000           add byte [eax], al
            0x00402340      0000           add byte [eax], al
            0x00402342      0000           add byte [eax], al
            0x00402344      0000           add byte [eax], al
            0x00402346      0000           add byte [eax], al
            0x00402348      0000           add byte [eax], al
            0x0040234a      0000           add byte [eax], al
            0x0040234c      0000           add byte [eax], al
            0x0040234e      0000           add byte [eax], al
            0x00402350      0000           add byte [eax], al
            0x00402352      0000           add byte [eax], al
            0x00402354      0000           add byte [eax], al
            0x00402356      0000           add byte [eax], al
            0x00402358      0000           add byte [eax], al
            0x0040235a      0000           add byte [eax], al
            0x0040235c      0000           add byte [eax], al
            0x0040235e      0000           add byte [eax], al
            0x00402360      0000           add byte [eax], al
            0x00402362      0000           add byte [eax], al
            0x00402364      0000           add byte [eax], al
            0x00402366      0000           add byte [eax], al
            0x00402368      0000           add byte [eax], al
            0x0040236a      0000           add byte [eax], al
            0x0040236c      0000           add byte [eax], al
            0x0040236e      0000           add byte [eax], al
            0x00402370      0000           add byte [eax], al
            0x00402372      0000           add byte [eax], al
            0x00402374      0000           add byte [eax], al
            0x00402376      0000           add byte [eax], al
            0x00402378      0000           add byte [eax], al
            0x0040237a      0000           add byte [eax], al
            0x0040237c      0000           add byte [eax], al
            0x0040237e      0000           add byte [eax], al
            0x00402380      0000           add byte [eax], al
            0x00402382      0000           add byte [eax], al
            0x00402384      0000           add byte [eax], al
            0x00402386      0000           add byte [eax], al
            0x00402388      0000           add byte [eax], al
            0x0040238a      0000           add byte [eax], al
            0x0040238c      0000           add byte [eax], al
            0x0040238e      0000           add byte [eax], al
            0x00402390      0000           add byte [eax], al
            0x00402392      0000           add byte [eax], al
            0x00402394      0000           add byte [eax], al
            0x00402396      0000           add byte [eax], al
            0x00402398      0000           add byte [eax], al
            0x0040239a      0000           add byte [eax], al
            0x0040239c      0000           add byte [eax], al
            0x0040239e      0000           add byte [eax], al
            0x004023a0      0000           add byte [eax], al
            0x004023a2      0000           add byte [eax], al
            0x004023a4      0000           add byte [eax], al
            0x004023a6      0000           add byte [eax], al
            0x004023a8      0000           add byte [eax], al
            0x004023aa      0000           add byte [eax], al
            0x004023ac      0000           add byte [eax], al
            0x004023ae      0000           add byte [eax], al
            0x004023b0      0000           add byte [eax], al
            0x004023b2      0000           add byte [eax], al
            0x004023b4      0000           add byte [eax], al
            0x004023b6      0000           add byte [eax], al
            0x004023b8      0000           add byte [eax], al
            0x004023ba      0000           add byte [eax], al
            0x004023bc      0000           add byte [eax], al
            0x004023be      0000           add byte [eax], al
            0x004023c0      0000           add byte [eax], al
            0x004023c2      0000           add byte [eax], al
            0x004023c4      0000           add byte [eax], al
            0x004023c6      0000           add byte [eax], al
            0x004023c8      0000           add byte [eax], al
            0x004023ca      0000           add byte [eax], al
            0x004023cc      0000           add byte [eax], al
            0x004023ce      0000           add byte [eax], al
            0x004023d0      0000           add byte [eax], al
            0x004023d2      0000           add byte [eax], al
            0x004023d4      0000           add byte [eax], al
            0x004023d6      0000           add byte [eax], al
            0x004023d8      0000           add byte [eax], al
            0x004023da      0000           add byte [eax], al
            0x004023dc      0000           add byte [eax], al
            0x004023de      0000           add byte [eax], al
            0x004023e0      0000           add byte [eax], al
            0x004023e2      0000           add byte [eax], al
            0x004023e4      0000           add byte [eax], al
            0x004023e6      0000           add byte [eax], al
            0x004023e8      0000           add byte [eax], al
            0x004023ea      0000           add byte [eax], al
            0x004023ec      0000           add byte [eax], al
            0x004023ee      0000           add byte [eax], al
            0x004023f0      0000           add byte [eax], al
            0x004023f2      0000           add byte [eax], al
            0x004023f4      0000           add byte [eax], al
            0x004023f6      0000           add byte [eax], al
            0x004023f8      0000           add byte [eax], al
            0x004023fa      0000           add byte [eax], al
            0x004023fc      0000           add byte [eax], al
            0x004023fe      0000           add byte [eax], al
            0x00402400      0000           add byte [eax], al
            0x00402402      0000           add byte [eax], al
            0x00402404      0000           add byte [eax], al
            0x00402406      0000           add byte [eax], al
            0x00402408      0000           add byte [eax], al
            0x0040240a      0000           add byte [eax], al
            0x0040240c      0000           add byte [eax], al
            0x0040240e      0000           add byte [eax], al
            0x00402410      0000           add byte [eax], al
            0x00402412      0000           add byte [eax], al
            0x00402414      0000           add byte [eax], al
            0x00402416      0000           add byte [eax], al
            0x00402418      0000           add byte [eax], al
            0x0040241a      0000           add byte [eax], al
            0x0040241c      0000           add byte [eax], al
            0x0040241e      0000           add byte [eax], al
            0x00402420      0000           add byte [eax], al
            0x00402422      0000           add byte [eax], al
            0x00402424      0000           add byte [eax], al
            0x00402426      0000           add byte [eax], al
            0x00402428      0000           add byte [eax], al
            0x0040242a      0000           add byte [eax], al
            0x0040242c      0000           add byte [eax], al
            0x0040242e      0000           add byte [eax], al
            0x00402430      0000           add byte [eax], al
            0x00402432      0000           add byte [eax], al
            0x00402434      0000           add byte [eax], al
            0x00402436      0000           add byte [eax], al
            0x00402438      0000           add byte [eax], al
            0x0040243a      0000           add byte [eax], al
            0x0040243c      0000           add byte [eax], al
            0x0040243e      0000           add byte [eax], al
            0x00402440      0000           add byte [eax], al
            0x00402442      0000           add byte [eax], al
            0x00402444      0000           add byte [eax], al
            0x00402446      0000           add byte [eax], al
            0x00402448      0000           add byte [eax], al
            0x0040244a      0000           add byte [eax], al
            0x0040244c      0000           add byte [eax], al
            0x0040244e      0000           add byte [eax], al
            0x00402450      0000           add byte [eax], al
            0x00402452      0000           add byte [eax], al
            0x00402454      0000           add byte [eax], al
            0x00402456      0000           add byte [eax], al
            0x00402458      0000           add byte [eax], al
            0x0040245a      0000           add byte [eax], al
            0x0040245c      0000           add byte [eax], al
            0x0040245e      0000           add byte [eax], al
            0x00402460      0000           add byte [eax], al
            0x00402462      0000           add byte [eax], al
            0x00402464      0000           add byte [eax], al
            0x00402466      0000           add byte [eax], al
            0x00402468      0000           add byte [eax], al
            0x0040246a      0000           add byte [eax], al
            0x0040246c      0000           add byte [eax], al
            0x0040246e      0000           add byte [eax], al
            0x00402470      0000           add byte [eax], al
            0x00402472      0000           add byte [eax], al
            0x00402474      0000           add byte [eax], al
            0x00402476      0000           add byte [eax], al
            0x00402478      0000           add byte [eax], al
            0x0040247a      0000           add byte [eax], al
            0x0040247c      0000           add byte [eax], al
            0x0040247e      0000           add byte [eax], al
            0x00402480      0000           add byte [eax], al
            0x00402482      0000           add byte [eax], al
            0x00402484      0000           add byte [eax], al
            0x00402486      0000           add byte [eax], al
            0x00402488      0000           add byte [eax], al
            0x0040248a      0000           add byte [eax], al
            0x0040248c      0000           add byte [eax], al
            0x0040248e      0000           add byte [eax], al
            0x00402490      0000           add byte [eax], al
            0x00402492      0000           add byte [eax], al
            0x00402494      0000           add byte [eax], al
            0x00402496      0000           add byte [eax], al
            0x00402498      0000           add byte [eax], al
            0x0040249a      0000           add byte [eax], al
            0x0040249c      0000           add byte [eax], al
            0x0040249e      0000           add byte [eax], al
            0x004024a0      0000           add byte [eax], al
            0x004024a2      0000           add byte [eax], al
            0x004024a4      0000           add byte [eax], al
            0x004024a6      0000           add byte [eax], al
            0x004024a8      0000           add byte [eax], al
            0x004024aa      0000           add byte [eax], al
            0x004024ac      0000           add byte [eax], al
            0x004024ae      0000           add byte [eax], al
            0x004024b0      0000           add byte [eax], al
            0x004024b2      0000           add byte [eax], al
            0x004024b4      0000           add byte [eax], al
            0x004024b6      0000           add byte [eax], al
            0x004024b8      0000           add byte [eax], al
            0x004024ba      0000           add byte [eax], al
            0x004024bc      0000           add byte [eax], al
            0x004024be      0000           add byte [eax], al
            0x004024c0      0000           add byte [eax], al
            0x004024c2      0000           add byte [eax], al
            0x004024c4      0000           add byte [eax], al
            0x004024c6      0000           add byte [eax], al
            0x004024c8      0000           add byte [eax], al
            0x004024ca      0000           add byte [eax], al
            0x004024cc      0000           add byte [eax], al
            0x004024ce      0000           add byte [eax], al
            0x004024d0      0000           add byte [eax], al
            0x004024d2      0000           add byte [eax], al
            0x004024d4      0000           add byte [eax], al
            0x004024d6      0000           add byte [eax], al
            0x004024d8      0000           add byte [eax], al
            0x004024da      0000           add byte [eax], al
            0x004024dc      0000           add byte [eax], al
            0x004024de      0000           add byte [eax], al
            0x004024e0      0000           add byte [eax], al
            0x004024e2      0000           add byte [eax], al
            0x004024e4      0000           add byte [eax], al
            0x004024e6      0000           add byte [eax], al
            0x004024e8      0000           add byte [eax], al
            0x004024ea      0000           add byte [eax], al
            0x004024ec      0000           add byte [eax], al
            0x004024ee      0000           add byte [eax], al
            0x004024f0      0000           add byte [eax], al
            0x004024f2      0000           add byte [eax], al
            0x004024f4      0000           add byte [eax], al
            0x004024f6      0000           add byte [eax], al
            0x004024f8      0000           add byte [eax], al
            0x004024fa      0000           add byte [eax], al
            0x004024fc      0000           add byte [eax], al
            0x004024fe      0000           add byte [eax], al
            0x00402500      0000           add byte [eax], al
            0x00402502      0000           add byte [eax], al
            0x00402504      0000           add byte [eax], al
            0x00402506      0000           add byte [eax], al
            0x00402508      0000           add byte [eax], al
            0x0040250a      0000           add byte [eax], al
            0x0040250c      0000           add byte [eax], al
            0x0040250e      0000           add byte [eax], al
            0x00402510      0000           add byte [eax], al
            0x00402512      0000           add byte [eax], al
            0x00402514      0000           add byte [eax], al
            0x00402516      0000           add byte [eax], al
            0x00402518      0000           add byte [eax], al
            0x0040251a      0000           add byte [eax], al
            0x0040251c      0000           add byte [eax], al
            0x0040251e      0000           add byte [eax], al
            0x00402520      0000           add byte [eax], al
            0x00402522      0000           add byte [eax], al
            0x00402524      0000           add byte [eax], al
            0x00402526      0000           add byte [eax], al
            0x00402528      0000           add byte [eax], al
            0x0040252a      0000           add byte [eax], al
            0x0040252c      0000           add byte [eax], al
            0x0040252e      0000           add byte [eax], al
            0x00402530      0000           add byte [eax], al
            0x00402532      0000           add byte [eax], al
            0x00402534      0000           add byte [eax], al
            0x00402536      0000           add byte [eax], al
            0x00402538      0000           add byte [eax], al
            0x0040253a      0000           add byte [eax], al
            0x0040253c      0000           add byte [eax], al
            0x0040253e      0000           add byte [eax], al
            0x00402540      0000           add byte [eax], al
            0x00402542      0000           add byte [eax], al
            0x00402544      0000           add byte [eax], al
            0x00402546      0000           add byte [eax], al
            0x00402548      0000           add byte [eax], al
            0x0040254a      0000           add byte [eax], al
            0x0040254c      0000           add byte [eax], al
            0x0040254e      0000           add byte [eax], al
            0x00402550      0000           add byte [eax], al
            0x00402552      0000           add byte [eax], al
            0x00402554      0000           add byte [eax], al
            0x00402556      0000           add byte [eax], al
            0x00402558      0000           add byte [eax], al
            0x0040255a      0000           add byte [eax], al
            0x0040255c      0000           add byte [eax], al
            0x0040255e      0000           add byte [eax], al
            0x00402560      0000           add byte [eax], al
            0x00402562      0000           add byte [eax], al
            0x00402564      0000           add byte [eax], al
            0x00402566      0000           add byte [eax], al
            0x00402568      0000           add byte [eax], al
            0x0040256a      0000           add byte [eax], al
            0x0040256c      0000           add byte [eax], al
            0x0040256e      0000           add byte [eax], al
            0x00402570      0000           add byte [eax], al
            0x00402572      0000           add byte [eax], al
            0x00402574      0000           add byte [eax], al
            0x00402576      0000           add byte [eax], al
            0x00402578      0000           add byte [eax], al
            0x0040257a      0000           add byte [eax], al
            0x0040257c      0000           add byte [eax], al
            0x0040257e      0000           add byte [eax], al
            0x00402580      0000           add byte [eax], al
            0x00402582      0000           add byte [eax], al
            0x00402584      0000           add byte [eax], al
            0x00402586      0000           add byte [eax], al
            0x00402588      0000           add byte [eax], al
            0x0040258a      0000           add byte [eax], al
            0x0040258c      0000           add byte [eax], al
            0x0040258e      0000           add byte [eax], al
            0x00402590      0000           add byte [eax], al
            0x00402592      0000           add byte [eax], al
            0x00402594      0000           add byte [eax], al
            0x00402596      0000           add byte [eax], al
            0x00402598      0000           add byte [eax], al
            0x0040259a      0000           add byte [eax], al
            0x0040259c      0000           add byte [eax], al
            0x0040259e      0000           add byte [eax], al
            0x004025a0      0000           add byte [eax], al
            0x004025a2      0000           add byte [eax], al
            0x004025a4      0000           add byte [eax], al
            0x004025a6      0000           add byte [eax], al
            0x004025a8      0000           add byte [eax], al
            0x004025aa      0000           add byte [eax], al
            0x004025ac      0000           add byte [eax], al
            0x004025ae      0000           add byte [eax], al
            0x004025b0      0000           add byte [eax], al
            0x004025b2      0000           add byte [eax], al
            0x004025b4      0000           add byte [eax], al
            0x004025b6      0000           add byte [eax], al
            0x004025b8      0000           add byte [eax], al
            0x004025ba      0000           add byte [eax], al
            0x004025bc      0000           add byte [eax], al
            0x004025be      0000           add byte [eax], al
            0x004025c0      0000           add byte [eax], al
            0x004025c2      0000           add byte [eax], al
            0x004025c4      0000           add byte [eax], al
            0x004025c6      0000           add byte [eax], al
            0x004025c8      0000           add byte [eax], al
            0x004025ca      0000           add byte [eax], al
            0x004025cc      0000           add byte [eax], al
            0x004025ce      0000           add byte [eax], al
            0x004025d0      0000           add byte [eax], al
            0x004025d2      0000           add byte [eax], al
            0x004025d4      0000           add byte [eax], al
            0x004025d6      0000           add byte [eax], al
            0x004025d8      0000           add byte [eax], al
            0x004025da      0000           add byte [eax], al
            0x004025dc      0000           add byte [eax], al
            0x004025de      0000           add byte [eax], al
            0x004025e0      0000           add byte [eax], al
            0x004025e2      0000           add byte [eax], al
            0x004025e4      0000           add byte [eax], al
            0x004025e6      0000           add byte [eax], al
            0x004025e8      0000           add byte [eax], al
            0x004025ea      0000           add byte [eax], al
            0x004025ec      0000           add byte [eax], al
            0x004025ee      0000           add byte [eax], al
            0x004025f0      0000           add byte [eax], al
            0x004025f2      0000           add byte [eax], al
            0x004025f4      0000           add byte [eax], al
            0x004025f6      0000           add byte [eax], al
            0x004025f8      0000           add byte [eax], al
            0x004025fa      0000           add byte [eax], al
            0x004025fc      0000           add byte [eax], al
            0x004025fe      0000           add byte [eax], al
            0x00402600      0000           add byte [eax], al
            0x00402602      0000           add byte [eax], al
            0x00402604      0000           add byte [eax], al
            0x00402606      0000           add byte [eax], al
            0x00402608      0000           add byte [eax], al
            0x0040260a      0000           add byte [eax], al
            0x0040260c      0000           add byte [eax], al
            0x0040260e      0000           add byte [eax], al
            0x00402610      0000           add byte [eax], al
            0x00402612      0000           add byte [eax], al
            0x00402614      0000           add byte [eax], al
            0x00402616      0000           add byte [eax], al
            0x00402618      0000           add byte [eax], al
            0x0040261a      0000           add byte [eax], al
            0x0040261c      0000           add byte [eax], al
            0x0040261e      0000           add byte [eax], al
            0x00402620      0000           add byte [eax], al
            0x00402622      0000           add byte [eax], al
            0x00402624      0000           add byte [eax], al
            0x00402626      0000           add byte [eax], al
            0x00402628      0000           add byte [eax], al
            0x0040262a      0000           add byte [eax], al
            0x0040262c      0000           add byte [eax], al
            0x0040262e      0000           add byte [eax], al
            0x00402630      0000           add byte [eax], al
            0x00402632      0000           add byte [eax], al
            0x00402634      0000           add byte [eax], al
            0x00402636      0000           add byte [eax], al
            0x00402638      0000           add byte [eax], al
            0x0040263a      0000           add byte [eax], al
            0x0040263c      0000           add byte [eax], al
            0x0040263e      0000           add byte [eax], al
            0x00402640      0000           add byte [eax], al
            0x00402642      0000           add byte [eax], al
            0x00402644      0000           add byte [eax], al
            0x00402646      0000           add byte [eax], al
            0x00402648      0000           add byte [eax], al
            0x0040264a      0000           add byte [eax], al
            0x0040264c      0000           add byte [eax], al
            0x0040264e      0000           add byte [eax], al
            0x00402650      0000           add byte [eax], al
            0x00402652      0000           add byte [eax], al
            0x00402654      0000           add byte [eax], al
            0x00402656      0000           add byte [eax], al
            0x00402658      0000           add byte [eax], al
            0x0040265a      0000           add byte [eax], al
            0x0040265c      0000           add byte [eax], al
            0x0040265e      0000           add byte [eax], al
            0x00402660      0000           add byte [eax], al
            0x00402662      0000           add byte [eax], al
            0x00402664      0000           add byte [eax], al
            0x00402666      0000           add byte [eax], al
            0x00402668      0000           add byte [eax], al
            0x0040266a      0000           add byte [eax], al
            0x0040266c      0000           add byte [eax], al
            0x0040266e      0000           add byte [eax], al
            0x00402670      0000           add byte [eax], al
            0x00402672      0000           add byte [eax], al
            0x00402674      0000           add byte [eax], al
            0x00402676      0000           add byte [eax], al
            0x00402678      0000           add byte [eax], al
            0x0040267a      0000           add byte [eax], al
            0x0040267c      0000           add byte [eax], al
            0x0040267e      0000           add byte [eax], al
            0x00402680      0000           add byte [eax], al
            0x00402682      0000           add byte [eax], al
            0x00402684      0000           add byte [eax], al
            0x00402686      0000           add byte [eax], al
            0x00402688      0000           add byte [eax], al
            0x0040268a      0000           add byte [eax], al
            0x0040268c      0000           add byte [eax], al
            0x0040268e      0000           add byte [eax], al
            0x00402690      0000           add byte [eax], al
            0x00402692      0000           add byte [eax], al
            0x00402694      0000           add byte [eax], al
            0x00402696      0000           add byte [eax], al
            0x00402698      0000           add byte [eax], al
            0x0040269a      0000           add byte [eax], al
            0x0040269c      0000           add byte [eax], al
            0x0040269e      0000           add byte [eax], al
            0x004026a0      0000           add byte [eax], al
            0x004026a2      0000           add byte [eax], al
            0x004026a4      0000           add byte [eax], al
            0x004026a6      0000           add byte [eax], al
            0x004026a8      0000           add byte [eax], al
            0x004026aa      0000           add byte [eax], al
            0x004026ac      0000           add byte [eax], al
            0x004026ae      0000           add byte [eax], al
            0x004026b0      0000           add byte [eax], al
            0x004026b2      0000           add byte [eax], al
            0x004026b4      0000           add byte [eax], al
            0x004026b6      0000           add byte [eax], al
            0x004026b8      0000           add byte [eax], al
            0x004026ba      0000           add byte [eax], al
            0x004026bc      0000           add byte [eax], al
            0x004026be      0000           add byte [eax], al
            0x004026c0      0000           add byte [eax], al
            0x004026c2      0000           add byte [eax], al
            0x004026c4      0000           add byte [eax], al
            0x004026c6      0000           add byte [eax], al
            0x004026c8      0000           add byte [eax], al
            0x004026ca      0000           add byte [eax], al
            0x004026cc      0000           add byte [eax], al
            0x004026ce      0000           add byte [eax], al
            0x004026d0      0000           add byte [eax], al
            0x004026d2      0000           add byte [eax], al
            0x004026d4      0000           add byte [eax], al
            0x004026d6      0000           add byte [eax], al
            0x004026d8      0000           add byte [eax], al
            0x004026da      0000           add byte [eax], al
            0x004026dc      0000           add byte [eax], al
            0x004026de      0000           add byte [eax], al
            0x004026e0      0000           add byte [eax], al
            0x004026e2      0000           add byte [eax], al
            0x004026e4      0000           add byte [eax], al
            0x004026e6      0000           add byte [eax], al
            0x004026e8      0000           add byte [eax], al
            0x004026ea      0000           add byte [eax], al
            0x004026ec      0000           add byte [eax], al
            0x004026ee      0000           add byte [eax], al
            0x004026f0      0000           add byte [eax], al
            0x004026f2      0000           add byte [eax], al
            0x004026f4      0000           add byte [eax], al
            0x004026f6      0000           add byte [eax], al
            0x004026f8      0000           add byte [eax], al
            0x004026fa      0000           add byte [eax], al
            0x004026fc      0000           add byte [eax], al
            0x004026fe      0000           add byte [eax], al
            0x00402700      0000           add byte [eax], al
            0x00402702      0000           add byte [eax], al
            0x00402704      0000           add byte [eax], al
            0x00402706      0000           add byte [eax], al
            0x00402708      0000           add byte [eax], al
            0x0040270a      0000           add byte [eax], al
            0x0040270c      0000           add byte [eax], al
            0x0040270e      0000           add byte [eax], al
            0x00402710      0000           add byte [eax], al
            0x00402712      0000           add byte [eax], al
            0x00402714      0000           add byte [eax], al
            0x00402716      0000           add byte [eax], al
            0x00402718      0000           add byte [eax], al
            0x0040271a      0000           add byte [eax], al
            0x0040271c      0000           add byte [eax], al
            0x0040271e      0000           add byte [eax], al
            0x00402720      0000           add byte [eax], al
            0x00402722      0000           add byte [eax], al
            0x00402724      0000           add byte [eax], al
            0x00402726      0000           add byte [eax], al
            0x00402728      0000           add byte [eax], al
            0x0040272a      0000           add byte [eax], al
            0x0040272c      0000           add byte [eax], al
            0x0040272e      0000           add byte [eax], al
            0x00402730      0000           add byte [eax], al
            0x00402732      0000           add byte [eax], al
            0x00402734      0000           add byte [eax], al
            0x00402736      0000           add byte [eax], al
            0x00402738      0000           add byte [eax], al
            0x0040273a      0000           add byte [eax], al
            0x0040273c      0000           add byte [eax], al
            0x0040273e      0000           add byte [eax], al
            0x00402740      0000           add byte [eax], al
            0x00402742      0000           add byte [eax], al
            0x00402744      0000           add byte [eax], al
            0x00402746      0000           add byte [eax], al
            0x00402748      0000           add byte [eax], al
            0x0040274a      0000           add byte [eax], al
            0x0040274c      0000           add byte [eax], al
            0x0040274e      0000           add byte [eax], al
            0x00402750      0000           add byte [eax], al
            0x00402752      0000           add byte [eax], al
            0x00402754      0000           add byte [eax], al
            0x00402756      0000           add byte [eax], al
            0x00402758      0000           add byte [eax], al
            0x0040275a      0000           add byte [eax], al
            0x0040275c      0000           add byte [eax], al
            0x0040275e      0000           add byte [eax], al
            0x00402760      0000           add byte [eax], al
            0x00402762      0000           add byte [eax], al
            0x00402764      0000           add byte [eax], al
            0x00402766      0000           add byte [eax], al
            0x00402768      0000           add byte [eax], al
            0x0040276a      0000           add byte [eax], al
            0x0040276c      0000           add byte [eax], al
            0x0040276e      0000           add byte [eax], al
            0x00402770      0000           add byte [eax], al
            0x00402772      0000           add byte [eax], al
            0x00402774      0000           add byte [eax], al
            0x00402776      0000           add byte [eax], al
            0x00402778      0000           add byte [eax], al
            0x0040277a      0000           add byte [eax], al
            0x0040277c      0000           add byte [eax], al
            0x0040277e      0000           add byte [eax], al
            0x00402780      0000           add byte [eax], al
            0x00402782      0000           add byte [eax], al
            0x00402784      0000           add byte [eax], al
            0x00402786      0000           add byte [eax], al
            0x00402788      0000           add byte [eax], al
            0x0040278a      0000           add byte [eax], al
            0x0040278c      0000           add byte [eax], al
            0x0040278e      0000           add byte [eax], al
            0x00402790      0000           add byte [eax], al
            0x00402792      0000           add byte [eax], al
            0x00402794      0000           add byte [eax], al
            0x00402796      0000           add byte [eax], al
            0x00402798      0000           add byte [eax], al
            0x0040279a      0000           add byte [eax], al
            0x0040279c      0000           add byte [eax], al
            0x0040279e      0000           add byte [eax], al
            0x004027a0      0000           add byte [eax], al
            0x004027a2      0000           add byte [eax], al
            0x004027a4      0000           add byte [eax], al
            0x004027a6      0000           add byte [eax], al
            0x004027a8      0000           add byte [eax], al
            0x004027aa      0000           add byte [eax], al
            0x004027ac      0000           add byte [eax], al
            0x004027ae      0000           add byte [eax], al
            0x004027b0      0000           add byte [eax], al
            0x004027b2      0000           add byte [eax], al
            0x004027b4      0000           add byte [eax], al
            0x004027b6      0000           add byte [eax], al
            0x004027b8      0000           add byte [eax], al
            0x004027ba      0000           add byte [eax], al
            0x004027bc      0000           add byte [eax], al
            0x004027be      0000           add byte [eax], al
            0x004027c0      0000           add byte [eax], al
            0x004027c2      0000           add byte [eax], al
            0x004027c4      0000           add byte [eax], al
            0x004027c6      0000           add byte [eax], al
            0x004027c8      0000           add byte [eax], al
            0x004027ca      0000           add byte [eax], al
            0x004027cc      0000           add byte [eax], al
            0x004027ce      0000           add byte [eax], al
            0x004027d0      0000           add byte [eax], al
            0x004027d2      0000           add byte [eax], al
            0x004027d4      0000           add byte [eax], al
            0x004027d6      0000           add byte [eax], al
            0x004027d8      0000           add byte [eax], al
            0x004027da      0000           add byte [eax], al
            0x004027dc      0000           add byte [eax], al
            0x004027de      0000           add byte [eax], al
            0x004027e0      0000           add byte [eax], al
            0x004027e2      0000           add byte [eax], al
            0x004027e4      0000           add byte [eax], al
            0x004027e6      0000           add byte [eax], al
            0x004027e8      0000           add byte [eax], al
            0x004027ea      0000           add byte [eax], al
            0x004027ec      0000           add byte [eax], al
            0x004027ee      0000           add byte [eax], al
            0x004027f0      0000           add byte [eax], al
            0x004027f2      0000           add byte [eax], al
            0x004027f4      0000           add byte [eax], al
            0x004027f6      0000           add byte [eax], al
            0x004027f8      0000           add byte [eax], al
            0x004027fa      0000           add byte [eax], al
            0x004027fc      0000           add byte [eax], al
            0x004027fe      0000           add byte [eax], al
            0x00402800      0000           add byte [eax], al
            0x00402802      0000           add byte [eax], al
            0x00402804      0000           add byte [eax], al
            0x00402806      0000           add byte [eax], al
            0x00402808      0000           add byte [eax], al
            0x0040280a      0000           add byte [eax], al
            0x0040280c      0000           add byte [eax], al
            0x0040280e      0000           add byte [eax], al
            0x00402810      0000           add byte [eax], al
            0x00402812      0000           add byte [eax], al
            0x00402814      0000           add byte [eax], al
            0x00402816      0000           add byte [eax], al
            0x00402818      0000           add byte [eax], al
            0x0040281a      0000           add byte [eax], al
            0x0040281c      0000           add byte [eax], al
            0x0040281e      0000           add byte [eax], al
            0x00402820      0000           add byte [eax], al
            0x00402822      0000           add byte [eax], al
            0x00402824      0000           add byte [eax], al
            0x00402826      0000           add byte [eax], al
            0x00402828      0000           add byte [eax], al
            0x0040282a      0000           add byte [eax], al
            0x0040282c      0000           add byte [eax], al
            0x0040282e      0000           add byte [eax], al
            0x00402830      0000           add byte [eax], al
            0x00402832      0000           add byte [eax], al
            0x00402834      0000           add byte [eax], al
            0x00402836      0000           add byte [eax], al
            0x00402838      0000           add byte [eax], al
            0x0040283a      0000           add byte [eax], al
            0x0040283c      0000           add byte [eax], al
            0x0040283e      0000           add byte [eax], al
            0x00402840      0000           add byte [eax], al
            0x00402842      0000           add byte [eax], al
            0x00402844      0000           add byte [eax], al
            0x00402846      0000           add byte [eax], al
            0x00402848      0000           add byte [eax], al
            0x0040284a      0000           add byte [eax], al
            0x0040284c      0000           add byte [eax], al
            0x0040284e      0000           add byte [eax], al
            0x00402850      0000           add byte [eax], al
            0x00402852      0000           add byte [eax], al
            0x00402854      0000           add byte [eax], al
            0x00402856      0000           add byte [eax], al
            0x00402858      0000           add byte [eax], al
            0x0040285a      0000           add byte [eax], al
            0x0040285c      0000           add byte [eax], al
            0x0040285e      0000           add byte [eax], al
            0x00402860      0000           add byte [eax], al
            0x00402862      0000           add byte [eax], al
            0x00402864      0000           add byte [eax], al
            0x00402866      0000           add byte [eax], al
            0x00402868      0000           add byte [eax], al
            0x0040286a      0000           add byte [eax], al
            0x0040286c      0000           add byte [eax], al
            0x0040286e      0000           add byte [eax], al
            0x00402870      0000           add byte [eax], al
            0x00402872      0000           add byte [eax], al
            0x00402874      0000           add byte [eax], al
            0x00402876      0000           add byte [eax], al
            0x00402878      0000           add byte [eax], al
            0x0040287a      0000           add byte [eax], al
            0x0040287c      0000           add byte [eax], al
            0x0040287e      0000           add byte [eax], al
            0x00402880      0000           add byte [eax], al
            0x00402882      0000           add byte [eax], al
            0x00402884      0000           add byte [eax], al
            0x00402886      0000           add byte [eax], al
            0x00402888      0000           add byte [eax], al
            0x0040288a      0000           add byte [eax], al
            0x0040288c      0000           add byte [eax], al
            0x0040288e      0000           add byte [eax], al
            0x00402890      0000           add byte [eax], al
            0x00402892      0000           add byte [eax], al
            0x00402894      0000           add byte [eax], al
            0x00402896      0000           add byte [eax], al
            0x00402898      0000           add byte [eax], al
            0x0040289a      0000           add byte [eax], al
            0x0040289c      0000           add byte [eax], al
            0x0040289e      0000           add byte [eax], al
            0x004028a0      0000           add byte [eax], al
            0x004028a2      0000           add byte [eax], al
            0x004028a4      0000           add byte [eax], al
            0x004028a6      0000           add byte [eax], al
            0x004028a8      0000           add byte [eax], al
            0x004028aa      0000           add byte [eax], al
            0x004028ac      0000           add byte [eax], al
            0x004028ae      0000           add byte [eax], al
            0x004028b0      0000           add byte [eax], al
            0x004028b2      0000           add byte [eax], al
            0x004028b4      0000           add byte [eax], al
            0x004028b6      0000           add byte [eax], al
            0x004028b8      0000           add byte [eax], al
            0x004028ba      0000           add byte [eax], al
            0x004028bc      0000           add byte [eax], al
            0x004028be      0000           add byte [eax], al
            0x004028c0      0000           add byte [eax], al
            0x004028c2      0000           add byte [eax], al
            0x004028c4      0000           add byte [eax], al
            0x004028c6      0000           add byte [eax], al
            0x004028c8      0000           add byte [eax], al
            0x004028ca      0000           add byte [eax], al
            0x004028cc      0000           add byte [eax], al
            0x004028ce      0000           add byte [eax], al
            0x004028d0      0000           add byte [eax], al
            0x004028d2      0000           add byte [eax], al
            0x004028d4      0000           add byte [eax], al
            0x004028d6      0000           add byte [eax], al
            0x004028d8      0000           add byte [eax], al
            0x004028da      0000           add byte [eax], al
            0x004028dc      0000           add byte [eax], al
            0x004028de      0000           add byte [eax], al
            0x004028e0      0000           add byte [eax], al
            0x004028e2      0000           add byte [eax], al
            0x004028e4      0000           add byte [eax], al
            0x004028e6      0000           add byte [eax], al
            0x004028e8      0000           add byte [eax], al
            0x004028ea      0000           add byte [eax], al
            0x004028ec      0000           add byte [eax], al
            0x004028ee      0000           add byte [eax], al
            0x004028f0      0000           add byte [eax], al
            0x004028f2      0000           add byte [eax], al
            0x004028f4      0000           add byte [eax], al
            0x004028f6      0000           add byte [eax], al
            0x004028f8      0000           add byte [eax], al
            0x004028fa      0000           add byte [eax], al
            0x004028fc      0000           add byte [eax], al
            0x004028fe      0000           add byte [eax], al
            0x00402900      0000           add byte [eax], al
            0x00402902      0000           add byte [eax], al
            0x00402904      0000           add byte [eax], al
            0x00402906      0000           add byte [eax], al
            0x00402908      0000           add byte [eax], al
            0x0040290a      0000           add byte [eax], al
            0x0040290c      0000           add byte [eax], al
            0x0040290e      0000           add byte [eax], al
            0x00402910      0000           add byte [eax], al
            0x00402912      0000           add byte [eax], al
            0x00402914      0000           add byte [eax], al
            0x00402916      0000           add byte [eax], al
            0x00402918      0000           add byte [eax], al
            0x0040291a      0000           add byte [eax], al
            0x0040291c      0000           add byte [eax], al
            0x0040291e      0000           add byte [eax], al
            0x00402920      0000           add byte [eax], al
            0x00402922      0000           add byte [eax], al
            0x00402924      0000           add byte [eax], al
            0x00402926      0000           add byte [eax], al
            0x00402928      0000           add byte [eax], al
            0x0040292a      0000           add byte [eax], al
            0x0040292c      0000           add byte [eax], al
            0x0040292e      0000           add byte [eax], al
            0x00402930      0000           add byte [eax], al
            0x00402932      0000           add byte [eax], al
            0x00402934      0000           add byte [eax], al
            0x00402936      0000           add byte [eax], al
            0x00402938      0000           add byte [eax], al
            0x0040293a      0000           add byte [eax], al
            0x0040293c      0000           add byte [eax], al
            0x0040293e      0000           add byte [eax], al
            0x00402940      0000           add byte [eax], al
            0x00402942      0000           add byte [eax], al
            0x00402944      0000           add byte [eax], al
            0x00402946      0000           add byte [eax], al
            0x00402948      0000           add byte [eax], al
            0x0040294a      0000           add byte [eax], al
            0x0040294c      0000           add byte [eax], al
            0x0040294e      0000           add byte [eax], al
            0x00402950      0000           add byte [eax], al
            0x00402952      0000           add byte [eax], al
            0x00402954      0000           add byte [eax], al
            0x00402956      0000           add byte [eax], al
            0x00402958      0000           add byte [eax], al
            0x0040295a      0000           add byte [eax], al
            0x0040295c      0000           add byte [eax], al
            0x0040295e      0000           add byte [eax], al
            0x00402960      0000           add byte [eax], al
            0x00402962      0000           add byte [eax], al
            0x00402964      0000           add byte [eax], al
            0x00402966      0000           add byte [eax], al
            0x00402968      0000           add byte [eax], al
            0x0040296a      0000           add byte [eax], al
            0x0040296c      0000           add byte [eax], al
            0x0040296e      0000           add byte [eax], al
            0x00402970      0000           add byte [eax], al
            0x00402972      0000           add byte [eax], al
            0x00402974      0000           add byte [eax], al
            0x00402976      0000           add byte [eax], al
            0x00402978      0000           add byte [eax], al
            0x0040297a      0000           add byte [eax], al
            0x0040297c      0000           add byte [eax], al
            0x0040297e      0000           add byte [eax], al
            0x00402980      0000           add byte [eax], al
            0x00402982      0000           add byte [eax], al
            0x00402984      0000           add byte [eax], al
            0x00402986      0000           add byte [eax], al
            0x00402988      0000           add byte [eax], al
            0x0040298a      0000           add byte [eax], al
            0x0040298c      0000           add byte [eax], al
            0x0040298e      0000           add byte [eax], al
            0x00402990      0000           add byte [eax], al
            0x00402992      0000           add byte [eax], al
            0x00402994      0000           add byte [eax], al
            0x00402996      0000           add byte [eax], al
            0x00402998      0000           add byte [eax], al
            0x0040299a      0000           add byte [eax], al
            0x0040299c      0000           add byte [eax], al
            0x0040299e      0000           add byte [eax], al
            0x004029a0      0000           add byte [eax], al
            0x004029a2      0000           add byte [eax], al
            0x004029a4      0000           add byte [eax], al
            0x004029a6      0000           add byte [eax], al
            0x004029a8      0000           add byte [eax], al
            0x004029aa      0000           add byte [eax], al
            0x004029ac      0000           add byte [eax], al
            0x004029ae      0000           add byte [eax], al
            0x004029b0      0000           add byte [eax], al
            0x004029b2      0000           add byte [eax], al
            0x004029b4      0000           add byte [eax], al
            0x004029b6      0000           add byte [eax], al
            0x004029b8      0000           add byte [eax], al
            0x004029ba      0000           add byte [eax], al
            0x004029bc      0000           add byte [eax], al
            0x004029be      0000           add byte [eax], al
            0x004029c0      0000           add byte [eax], al
            0x004029c2      0000           add byte [eax], al
            0x004029c4      0000           add byte [eax], al
            0x004029c6      0000           add byte [eax], al
            0x004029c8      0000           add byte [eax], al
            0x004029ca      0000           add byte [eax], al
            0x004029cc      0000           add byte [eax], al
            0x004029ce      0000           add byte [eax], al
            0x004029d0      0000           add byte [eax], al
            0x004029d2      0000           add byte [eax], al
            0x004029d4      0000           add byte [eax], al
            0x004029d6      0000           add byte [eax], al
            0x004029d8      0000           add byte [eax], al
            0x004029da      0000           add byte [eax], al
            0x004029dc      0000           add byte [eax], al
            0x004029de      0000           add byte [eax], al
            0x004029e0      0000           add byte [eax], al
            0x004029e2      0000           add byte [eax], al
            0x004029e4      0000           add byte [eax], al
            0x004029e6      0000           add byte [eax], al
            0x004029e8      0000           add byte [eax], al
            0x004029ea      0000           add byte [eax], al
            0x004029ec      0000           add byte [eax], al
            0x004029ee      0000           add byte [eax], al
            0x004029f0      0000           add byte [eax], al
            0x004029f2      0000           add byte [eax], al
            0x004029f4      0000           add byte [eax], al
            0x004029f6      0000           add byte [eax], al
            0x004029f8      0000           add byte [eax], al
            0x004029fa      0000           add byte [eax], al
            0x004029fc      0000           add byte [eax], al
            0x004029fe      0000           add byte [eax], al
            0x00402a00      0000           add byte [eax], al
            0x00402a02      0000           add byte [eax], al
            0x00402a04      0000           add byte [eax], al
            0x00402a06      0000           add byte [eax], al
            0x00402a08      0000           add byte [eax], al
            0x00402a0a      0000           add byte [eax], al
            0x00402a0c      0000           add byte [eax], al
            0x00402a0e      0000           add byte [eax], al
            0x00402a10      0000           add byte [eax], al
            0x00402a12      0000           add byte [eax], al
            0x00402a14      0000           add byte [eax], al
            0x00402a16      0000           add byte [eax], al
            0x00402a18      0000           add byte [eax], al
            0x00402a1a      0000           add byte [eax], al
            0x00402a1c      0000           add byte [eax], al
            0x00402a1e      0000           add byte [eax], al
            0x00402a20      0000           add byte [eax], al
            0x00402a22      0000           add byte [eax], al
            0x00402a24      0000           add byte [eax], al
            0x00402a26      0000           add byte [eax], al
            0x00402a28      0000           add byte [eax], al
            0x00402a2a      0000           add byte [eax], al
            0x00402a2c      0000           add byte [eax], al
            0x00402a2e      0000           add byte [eax], al
            0x00402a30      0000           add byte [eax], al
            0x00402a32      0000           add byte [eax], al
            0x00402a34      0000           add byte [eax], al
            0x00402a36      0000           add byte [eax], al
            0x00402a38      0000           add byte [eax], al
            0x00402a3a      0000           add byte [eax], al
            0x00402a3c      0000           add byte [eax], al
            0x00402a3e      0000           add byte [eax], al
            0x00402a40      0000           add byte [eax], al
            0x00402a42      0000           add byte [eax], al
            0x00402a44      0000           add byte [eax], al
            0x00402a46      0000           add byte [eax], al
            0x00402a48      0000           add byte [eax], al
            0x00402a4a      0000           add byte [eax], al
            0x00402a4c      0000           add byte [eax], al
            0x00402a4e      0000           add byte [eax], al
            0x00402a50      0000           add byte [eax], al
            0x00402a52      0000           add byte [eax], al
            0x00402a54      0000           add byte [eax], al
            0x00402a56      0000           add byte [eax], al
            0x00402a58      0000           add byte [eax], al
            0x00402a5a      0000           add byte [eax], al
            0x00402a5c      0000           add byte [eax], al
            0x00402a5e      0000           add byte [eax], al
            0x00402a60      0000           add byte [eax], al
            0x00402a62      0000           add byte [eax], al
            0x00402a64      0000           add byte [eax], al
            0x00402a66      0000           add byte [eax], al
            0x00402a68      0000           add byte [eax], al
            0x00402a6a      0000           add byte [eax], al
            0x00402a6c      0000           add byte [eax], al
            0x00402a6e      0000           add byte [eax], al
            0x00402a70      0000           add byte [eax], al
            0x00402a72      0000           add byte [eax], al
            0x00402a74      0000           add byte [eax], al
            0x00402a76      0000           add byte [eax], al
            0x00402a78      0000           add byte [eax], al
            0x00402a7a      0000           add byte [eax], al
            0x00402a7c      0000           add byte [eax], al
            0x00402a7e      0000           add byte [eax], al
            0x00402a80      0000           add byte [eax], al
            0x00402a82      0000           add byte [eax], al
            0x00402a84      0000           add byte [eax], al
            0x00402a86      0000           add byte [eax], al
            0x00402a88      0000           add byte [eax], al
            0x00402a8a      0000           add byte [eax], al
            0x00402a8c      0000           add byte [eax], al
            0x00402a8e      0000           add byte [eax], al
            0x00402a90      0000           add byte [eax], al
            0x00402a92      0000           add byte [eax], al
            0x00402a94      0000           add byte [eax], al
            0x00402a96      0000           add byte [eax], al
            0x00402a98      0000           add byte [eax], al
            0x00402a9a      0000           add byte [eax], al
            0x00402a9c      0000           add byte [eax], al
            0x00402a9e      0000           add byte [eax], al
            0x00402aa0      0000           add byte [eax], al
            0x00402aa2      0000           add byte [eax], al
            0x00402aa4      0000           add byte [eax], al
            0x00402aa6      0000           add byte [eax], al
            0x00402aa8      0000           add byte [eax], al
            0x00402aaa      0000           add byte [eax], al
            0x00402aac      0000           add byte [eax], al
            0x00402aae      0000           add byte [eax], al
            0x00402ab0      0000           add byte [eax], al
            0x00402ab2      0000           add byte [eax], al
            0x00402ab4      0000           add byte [eax], al
            0x00402ab6      0000           add byte [eax], al
            0x00402ab8      0000           add byte [eax], al
            0x00402aba      0000           add byte [eax], al
            0x00402abc      0000           add byte [eax], al
            0x00402abe      0000           add byte [eax], al
            0x00402ac0      0000           add byte [eax], al
            0x00402ac2      0000           add byte [eax], al
            0x00402ac4      0000           add byte [eax], al
            0x00402ac6      0000           add byte [eax], al
            0x00402ac8      0000           add byte [eax], al
            0x00402aca      0000           add byte [eax], al
            0x00402acc      0000           add byte [eax], al
            0x00402ace      0000           add byte [eax], al
            0x00402ad0      0000           add byte [eax], al
            0x00402ad2      0000           add byte [eax], al
            0x00402ad4      0000           add byte [eax], al
            0x00402ad6      0000           add byte [eax], al
            0x00402ad8      0000           add byte [eax], al
            0x00402ada      0000           add byte [eax], al
            0x00402adc      0000           add byte [eax], al
            0x00402ade      0000           add byte [eax], al
            0x00402ae0      0000           add byte [eax], al
            0x00402ae2      0000           add byte [eax], al
            0x00402ae4      0000           add byte [eax], al
            0x00402ae6      0000           add byte [eax], al
            0x00402ae8      0000           add byte [eax], al
            0x00402aea      0000           add byte [eax], al
            0x00402aec      0000           add byte [eax], al
            0x00402aee      0000           add byte [eax], al
            0x00402af0      0000           add byte [eax], al
            0x00402af2      0000           add byte [eax], al
            0x00402af4      0000           add byte [eax], al
            0x00402af6      0000           add byte [eax], al
            0x00402af8      0000           add byte [eax], al
            0x00402afa      0000           add byte [eax], al
            0x00402afc      0000           add byte [eax], al
            0x00402afe      0000           add byte [eax], al
            0x00402b00      0000           add byte [eax], al
            0x00402b02      0000           add byte [eax], al
            0x00402b04      0000           add byte [eax], al
            0x00402b06      0000           add byte [eax], al
            0x00402b08      0000           add byte [eax], al
            0x00402b0a      0000           add byte [eax], al
            0x00402b0c      0000           add byte [eax], al
            0x00402b0e      0000           add byte [eax], al
            0x00402b10      0000           add byte [eax], al
            0x00402b12      0000           add byte [eax], al
            0x00402b14      0000           add byte [eax], al
            0x00402b16      0000           add byte [eax], al
            0x00402b18      0000           add byte [eax], al
            0x00402b1a      0000           add byte [eax], al
            0x00402b1c      0000           add byte [eax], al
            0x00402b1e      0000           add byte [eax], al
            0x00402b20      0000           add byte [eax], al
            0x00402b22      0000           add byte [eax], al
            0x00402b24      0000           add byte [eax], al
            0x00402b26      0000           add byte [eax], al
            0x00402b28      0000           add byte [eax], al
            0x00402b2a      0000           add byte [eax], al
            0x00402b2c      0000           add byte [eax], al
            0x00402b2e      0000           add byte [eax], al
            0x00402b30      0000           add byte [eax], al
            0x00402b32      0000           add byte [eax], al
            0x00402b34      0000           add byte [eax], al
            0x00402b36      0000           add byte [eax], al
            0x00402b38      0000           add byte [eax], al
            0x00402b3a      0000           add byte [eax], al
            0x00402b3c      0000           add byte [eax], al
            0x00402b3e      0000           add byte [eax], al
            0x00402b40      0000           add byte [eax], al
            0x00402b42      0000           add byte [eax], al
            0x00402b44      0000           add byte [eax], al
            0x00402b46      0000           add byte [eax], al
            0x00402b48      0000           add byte [eax], al
            0x00402b4a      0000           add byte [eax], al
            0x00402b4c      0000           add byte [eax], al
            0x00402b4e      0000           add byte [eax], al
            0x00402b50      0000           add byte [eax], al
            0x00402b52      0000           add byte [eax], al
            0x00402b54      0000           add byte [eax], al
            0x00402b56      0000           add byte [eax], al
            0x00402b58      0000           add byte [eax], al
            0x00402b5a      0000           add byte [eax], al
            0x00402b5c      0000           add byte [eax], al
            0x00402b5e      0000           add byte [eax], al
            0x00402b60      0000           add byte [eax], al
            0x00402b62      0000           add byte [eax], al
            0x00402b64      0000           add byte [eax], al
            0x00402b66      0000           add byte [eax], al
            0x00402b68      0000           add byte [eax], al
            0x00402b6a      0000           add byte [eax], al
            0x00402b6c      0000           add byte [eax], al
            0x00402b6e      0000           add byte [eax], al
            0x00402b70      0000           add byte [eax], al
            0x00402b72      0000           add byte [eax], al
            0x00402b74      0000           add byte [eax], al
            0x00402b76      0000           add byte [eax], al
            0x00402b78      0000           add byte [eax], al
            0x00402b7a      0000           add byte [eax], al
            0x00402b7c      0000           add byte [eax], al
            0x00402b7e      0000           add byte [eax], al
            0x00402b80      0000           add byte [eax], al
            0x00402b82      0000           add byte [eax], al
            0x00402b84      0000           add byte [eax], al
            0x00402b86      0000           add byte [eax], al
            0x00402b88      0000           add byte [eax], al
            0x00402b8a      0000           add byte [eax], al
            0x00402b8c      0000           add byte [eax], al
            0x00402b8e      0000           add byte [eax], al
            0x00402b90      0000           add byte [eax], al
            0x00402b92      0000           add byte [eax], al
            0x00402b94      0000           add byte [eax], al
            0x00402b96      0000           add byte [eax], al
            0x00402b98      0000           add byte [eax], al
            0x00402b9a      0000           add byte [eax], al
            0x00402b9c      0000           add byte [eax], al
            0x00402b9e      0000           add byte [eax], al
            0x00402ba0      0000           add byte [eax], al
            0x00402ba2      0000           add byte [eax], al
            0x00402ba4      0000           add byte [eax], al
            0x00402ba6      0000           add byte [eax], al
            0x00402ba8      0000           add byte [eax], al
            0x00402baa      0000           add byte [eax], al
            0x00402bac      0000           add byte [eax], al
            0x00402bae      0000           add byte [eax], al
            0x00402bb0      0000           add byte [eax], al
            0x00402bb2      0000           add byte [eax], al
            0x00402bb4      0000           add byte [eax], al
            0x00402bb6      0000           add byte [eax], al
            0x00402bb8      0000           add byte [eax], al
            0x00402bba      0000           add byte [eax], al
            0x00402bbc      0000           add byte [eax], al
            0x00402bbe      0000           add byte [eax], al
            0x00402bc0      0000           add byte [eax], al
            0x00402bc2      0000           add byte [eax], al
            0x00402bc4      0000           add byte [eax], al
            0x00402bc6      0000           add byte [eax], al
            0x00402bc8      0000           add byte [eax], al
            0x00402bca      0000           add byte [eax], al
            0x00402bcc      0000           add byte [eax], al
            0x00402bce      0000           add byte [eax], al
            0x00402bd0      0000           add byte [eax], al
            0x00402bd2      0000           add byte [eax], al
            0x00402bd4      0000           add byte [eax], al
            0x00402bd6      0000           add byte [eax], al
            0x00402bd8      0000           add byte [eax], al
            0x00402bda      0000           add byte [eax], al
            0x00402bdc      0000           add byte [eax], al
            0x00402bde      0000           add byte [eax], al
            0x00402be0      0000           add byte [eax], al
            0x00402be2      0000           add byte [eax], al
            0x00402be4      0000           add byte [eax], al
            0x00402be6      0000           add byte [eax], al
            0x00402be8      0000           add byte [eax], al
            0x00402bea      0000           add byte [eax], al
            0x00402bec      0000           add byte [eax], al
            0x00402bee      0000           add byte [eax], al
            0x00402bf0      0000           add byte [eax], al
            0x00402bf2      0000           add byte [eax], al
            0x00402bf4      0000           add byte [eax], al
            0x00402bf6      0000           add byte [eax], al
            0x00402bf8      0000           add byte [eax], al
            0x00402bfa      0000           add byte [eax], al
            0x00402bfc      0000           add byte [eax], al
            0x00402bfe      0000           add byte [eax], al
            0x00402c00      0000           add byte [eax], al
            0x00402c02      0000           add byte [eax], al
            0x00402c04      0000           add byte [eax], al
            0x00402c06      0000           add byte [eax], al
            0x00402c08      0000           add byte [eax], al
            0x00402c0a      0000           add byte [eax], al
            0x00402c0c      0000           add byte [eax], al
            0x00402c0e      0000           add byte [eax], al
            0x00402c10      0000           add byte [eax], al
            0x00402c12      0000           add byte [eax], al
            0x00402c14      0000           add byte [eax], al
            0x00402c16      0000           add byte [eax], al
            0x00402c18      0000           add byte [eax], al
            0x00402c1a      0000           add byte [eax], al
            0x00402c1c      0000           add byte [eax], al
            0x00402c1e      0000           add byte [eax], al
            0x00402c20      0000           add byte [eax], al
            0x00402c22      0000           add byte [eax], al
            0x00402c24      0000           add byte [eax], al
            0x00402c26      0000           add byte [eax], al
            0x00402c28      0000           add byte [eax], al
            0x00402c2a      0000           add byte [eax], al
            0x00402c2c      0000           add byte [eax], al
            0x00402c2e      0000           add byte [eax], al
            0x00402c30      0000           add byte [eax], al
            0x00402c32      0000           add byte [eax], al
            0x00402c34      0000           add byte [eax], al
            0x00402c36      0000           add byte [eax], al
            0x00402c38      0000           add byte [eax], al
            0x00402c3a      0000           add byte [eax], al
            0x00402c3c      0000           add byte [eax], al
            0x00402c3e      0000           add byte [eax], al
            0x00402c40      0000           add byte [eax], al
            0x00402c42      0000           add byte [eax], al
            0x00402c44      0000           add byte [eax], al
            0x00402c46      0000           add byte [eax], al
            0x00402c48      0000           add byte [eax], al
            0x00402c4a      0000           add byte [eax], al
            0x00402c4c      0000           add byte [eax], al
            0x00402c4e      0000           add byte [eax], al
            0x00402c50      0000           add byte [eax], al
            0x00402c52      0000           add byte [eax], al
            0x00402c54      0000           add byte [eax], al
            0x00402c56      0000           add byte [eax], al
            0x00402c58      0000           add byte [eax], al
            0x00402c5a      0000           add byte [eax], al
            0x00402c5c      0000           add byte [eax], al
            0x00402c5e      0000           add byte [eax], al
            0x00402c60      0000           add byte [eax], al
            0x00402c62      0000           add byte [eax], al
            0x00402c64      0000           add byte [eax], al
            0x00402c66      0000           add byte [eax], al
            0x00402c68      0000           add byte [eax], al
            0x00402c6a      0000           add byte [eax], al
            0x00402c6c      0000           add byte [eax], al
            0x00402c6e      0000           add byte [eax], al
            0x00402c70      0000           add byte [eax], al
            0x00402c72      0000           add byte [eax], al
            0x00402c74      0000           add byte [eax], al
            0x00402c76      0000           add byte [eax], al
            0x00402c78      0000           add byte [eax], al
            0x00402c7a      0000           add byte [eax], al
            0x00402c7c      0000           add byte [eax], al
            0x00402c7e      0000           add byte [eax], al
            0x00402c80      0000           add byte [eax], al
            0x00402c82      0000           add byte [eax], al
            0x00402c84      0000           add byte [eax], al
            0x00402c86      0000           add byte [eax], al
            0x00402c88      0000           add byte [eax], al
            0x00402c8a      0000           add byte [eax], al
            0x00402c8c      0000           add byte [eax], al
            0x00402c8e      0000           add byte [eax], al
            0x00402c90      0000           add byte [eax], al
            0x00402c92      0000           add byte [eax], al
            0x00402c94      0000           add byte [eax], al
            0x00402c96      0000           add byte [eax], al
            0x00402c98      0000           add byte [eax], al
            0x00402c9a      0000           add byte [eax], al
            0x00402c9c      0000           add byte [eax], al
            0x00402c9e      0000           add byte [eax], al
            0x00402ca0      0000           add byte [eax], al
            0x00402ca2      0000           add byte [eax], al
            0x00402ca4      0000           add byte [eax], al
            0x00402ca6      0000           add byte [eax], al
            0x00402ca8      0000           add byte [eax], al
            0x00402caa      0000           add byte [eax], al
            0x00402cac      0000           add byte [eax], al
            0x00402cae      0000           add byte [eax], al
            0x00402cb0      0000           add byte [eax], al
            0x00402cb2      0000           add byte [eax], al
            0x00402cb4      0000           add byte [eax], al
            0x00402cb6      0000           add byte [eax], al
            0x00402cb8      0000           add byte [eax], al
            0x00402cba      0000           add byte [eax], al
            0x00402cbc      0000           add byte [eax], al
            0x00402cbe      0000           add byte [eax], al
            0x00402cc0      0000           add byte [eax], al
            0x00402cc2      0000           add byte [eax], al
            0x00402cc4      0000           add byte [eax], al
            0x00402cc6      0000           add byte [eax], al
            0x00402cc8      0000           add byte [eax], al
            0x00402cca      0000           add byte [eax], al
            0x00402ccc      0000           add byte [eax], al
            0x00402cce      0000           add byte [eax], al
            0x00402cd0      0000           add byte [eax], al
            0x00402cd2      0000           add byte [eax], al
            0x00402cd4      0000           add byte [eax], al
            0x00402cd6      0000           add byte [eax], al
            0x00402cd8      0000           add byte [eax], al
            0x00402cda      0000           add byte [eax], al
            0x00402cdc      0000           add byte [eax], al
            0x00402cde      0000           add byte [eax], al
            0x00402ce0      0000           add byte [eax], al
            0x00402ce2      0000           add byte [eax], al
            0x00402ce4      0000           add byte [eax], al
            0x00402ce6      0000           add byte [eax], al
            0x00402ce8      0000           add byte [eax], al
            0x00402cea      0000           add byte [eax], al
            0x00402cec      0000           add byte [eax], al
            0x00402cee      0000           add byte [eax], al
            0x00402cf0      0000           add byte [eax], al
            0x00402cf2      0000           add byte [eax], al
            0x00402cf4      0000           add byte [eax], al
            0x00402cf6      0000           add byte [eax], al
            0x00402cf8      0000           add byte [eax], al
            0x00402cfa      0000           add byte [eax], al
            0x00402cfc      0000           add byte [eax], al
            0x00402cfe      0000           add byte [eax], al
            0x00402d00      0000           add byte [eax], al
            0x00402d02      0000           add byte [eax], al
            0x00402d04      0000           add byte [eax], al
            0x00402d06      0000           add byte [eax], al
            0x00402d08      0000           add byte [eax], al
            0x00402d0a      0000           add byte [eax], al
            0x00402d0c      0000           add byte [eax], al
            0x00402d0e      0000           add byte [eax], al
            0x00402d10      0000           add byte [eax], al
            0x00402d12      0000           add byte [eax], al
            0x00402d14      0000           add byte [eax], al
            0x00402d16      0000           add byte [eax], al
            0x00402d18      0000           add byte [eax], al
            0x00402d1a      0000           add byte [eax], al
            0x00402d1c      0000           add byte [eax], al
            0x00402d1e      0000           add byte [eax], al
            0x00402d20      0000           add byte [eax], al
            0x00402d22      0000           add byte [eax], al
            0x00402d24      0000           add byte [eax], al
            0x00402d26      0000           add byte [eax], al
            0x00402d28      0000           add byte [eax], al
            0x00402d2a      0000           add byte [eax], al
            0x00402d2c      0000           add byte [eax], al
            0x00402d2e      0000           add byte [eax], al
            0x00402d30      0000           add byte [eax], al
            0x00402d32      0000           add byte [eax], al
            0x00402d34      0000           add byte [eax], al
            0x00402d36      0000           add byte [eax], al
            0x00402d38      0000           add byte [eax], al
            0x00402d3a      0000           add byte [eax], al
            0x00402d3c      0000           add byte [eax], al
            0x00402d3e      0000           add byte [eax], al
            0x00402d40      0000           add byte [eax], al
            0x00402d42      0000           add byte [eax], al
            0x00402d44      0000           add byte [eax], al
            0x00402d46      0000           add byte [eax], al
            0x00402d48      0000           add byte [eax], al
            0x00402d4a      0000           add byte [eax], al
            0x00402d4c      0000           add byte [eax], al
            0x00402d4e      0000           add byte [eax], al
            0x00402d50      0000           add byte [eax], al
            0x00402d52      0000           add byte [eax], al
            0x00402d54      0000           add byte [eax], al
            0x00402d56      0000           add byte [eax], al
            0x00402d58      0000           add byte [eax], al
            0x00402d5a      0000           add byte [eax], al
            0x00402d5c      0000           add byte [eax], al
            0x00402d5e      0000           add byte [eax], al
            0x00402d60      0000           add byte [eax], al
            0x00402d62      0000           add byte [eax], al
            0x00402d64      0000           add byte [eax], al
            0x00402d66      0000           add byte [eax], al
            0x00402d68      0000           add byte [eax], al
            0x00402d6a      0000           add byte [eax], al
            0x00402d6c      0000           add byte [eax], al
            0x00402d6e      0000           add byte [eax], al
            0x00402d70      0000           add byte [eax], al
            0x00402d72      0000           add byte [eax], al
            0x00402d74      0000           add byte [eax], al
            0x00402d76      0000           add byte [eax], al
            0x00402d78      0000           add byte [eax], al
            0x00402d7a      0000           add byte [eax], al
            0x00402d7c      0000           add byte [eax], al
            0x00402d7e      0000           add byte [eax], al
            0x00402d80      0000           add byte [eax], al
            0x00402d82      0000           add byte [eax], al
            0x00402d84      0000           add byte [eax], al
            0x00402d86      0000           add byte [eax], al
            0x00402d88      0000           add byte [eax], al
            0x00402d8a      0000           add byte [eax], al
            0x00402d8c      0000           add byte [eax], al
            0x00402d8e      0000           add byte [eax], al
            0x00402d90      0000           add byte [eax], al
            0x00402d92      0000           add byte [eax], al
            0x00402d94      0000           add byte [eax], al
            0x00402d96      0000           add byte [eax], al
            0x00402d98      0000           add byte [eax], al
            0x00402d9a      0000           add byte [eax], al
            0x00402d9c      0000           add byte [eax], al
            0x00402d9e      0000           add byte [eax], al
            0x00402da0      0000           add byte [eax], al
            0x00402da2      0000           add byte [eax], al
            0x00402da4      0000           add byte [eax], al
            0x00402da6      0000           add byte [eax], al
            0x00402da8      0000           add byte [eax], al
            0x00402daa      0000           add byte [eax], al
            0x00402dac      0000           add byte [eax], al
            0x00402dae      0000           add byte [eax], al
            0x00402db0      0000           add byte [eax], al
            0x00402db2      0000           add byte [eax], al
            0x00402db4      0000           add byte [eax], al
            0x00402db6      0000           add byte [eax], al
            0x00402db8      0000           add byte [eax], al
            0x00402dba      0000           add byte [eax], al
            0x00402dbc      0000           add byte [eax], al
            0x00402dbe      0000           add byte [eax], al
            0x00402dc0      0000           add byte [eax], al
            0x00402dc2      0000           add byte [eax], al
            0x00402dc4      0000           add byte [eax], al
            0x00402dc6      0000           add byte [eax], al
            0x00402dc8      0000           add byte [eax], al
            0x00402dca      0000           add byte [eax], al
            0x00402dcc      0000           add byte [eax], al
            0x00402dce      0000           add byte [eax], al
            0x00402dd0      0000           add byte [eax], al
            0x00402dd2      0000           add byte [eax], al
            0x00402dd4      0000           add byte [eax], al
            0x00402dd6      0000           add byte [eax], al
            0x00402dd8      0000           add byte [eax], al
            0x00402dda      0000           add byte [eax], al
            0x00402ddc      0000           add byte [eax], al
            0x00402dde      0000           add byte [eax], al
            0x00402de0      0000           add byte [eax], al
            0x00402de2      0000           add byte [eax], al
            0x00402de4      0000           add byte [eax], al
            0x00402de6      0000           add byte [eax], al
            0x00402de8      0000           add byte [eax], al
            0x00402dea      0000           add byte [eax], al
            0x00402dec      0000           add byte [eax], al
            0x00402dee      0000           add byte [eax], al
            0x00402df0      0000           add byte [eax], al
            0x00402df2      0000           add byte [eax], al
            0x00402df4      0000           add byte [eax], al
            0x00402df6      0000           add byte [eax], al
            0x00402df8      0000           add byte [eax], al
            0x00402dfa      0000           add byte [eax], al
            0x00402dfc      0000           add byte [eax], al
            0x00402dfe      0000           add byte [eax], al
            0x00402e00      0000           add byte [eax], al
            0x00402e02      0000           add byte [eax], al
            0x00402e04      0000           add byte [eax], al
            0x00402e06      0000           add byte [eax], al
            0x00402e08      0000           add byte [eax], al
            0x00402e0a      0000           add byte [eax], al
            0x00402e0c      0000           add byte [eax], al
            0x00402e0e      0000           add byte [eax], al
            0x00402e10      0000           add byte [eax], al
            0x00402e12      0000           add byte [eax], al
            0x00402e14      0000           add byte [eax], al
            0x00402e16      0000           add byte [eax], al
            0x00402e18      0000           add byte [eax], al
            0x00402e1a      0000           add byte [eax], al
            0x00402e1c      0000           add byte [eax], al
            0x00402e1e      0000           add byte [eax], al
            0x00402e20      0000           add byte [eax], al
            0x00402e22      0000           add byte [eax], al
            0x00402e24      0000           add byte [eax], al
            0x00402e26      0000           add byte [eax], al
            0x00402e28      0000           add byte [eax], al
            0x00402e2a      0000           add byte [eax], al
            0x00402e2c      0000           add byte [eax], al
            0x00402e2e      0000           add byte [eax], al
            0x00402e30      0000           add byte [eax], al
            0x00402e32      0000           add byte [eax], al
            0x00402e34      0000           add byte [eax], al
            0x00402e36      0000           add byte [eax], al
            0x00402e38      0000           add byte [eax], al
            0x00402e3a      0000           add byte [eax], al
            0x00402e3c      0000           add byte [eax], al
            0x00402e3e      0000           add byte [eax], al
            0x00402e40      0000           add byte [eax], al
            0x00402e42      0000           add byte [eax], al
            0x00402e44      0000           add byte [eax], al
            0x00402e46      0000           add byte [eax], al
            0x00402e48      0000           add byte [eax], al
            0x00402e4a      0000           add byte [eax], al
            0x00402e4c      0000           add byte [eax], al
            0x00402e4e      0000           add byte [eax], al
            0x00402e50      0000           add byte [eax], al
            0x00402e52      0000           add byte [eax], al
            0x00402e54      0000           add byte [eax], al
            0x00402e56      0000           add byte [eax], al
            0x00402e58      0000           add byte [eax], al
            0x00402e5a      0000           add byte [eax], al
            0x00402e5c      0000           add byte [eax], al
            0x00402e5e      0000           add byte [eax], al
            0x00402e60      0000           add byte [eax], al
            0x00402e62      0000           add byte [eax], al
            0x00402e64      0000           add byte [eax], al
            0x00402e66      0000           add byte [eax], al
            0x00402e68      0000           add byte [eax], al
            0x00402e6a      0000           add byte [eax], al
            0x00402e6c      0000           add byte [eax], al
            0x00402e6e      0000           add byte [eax], al
            0x00402e70      0000           add byte [eax], al
            0x00402e72      0000           add byte [eax], al
            0x00402e74      0000           add byte [eax], al
            0x00402e76      0000           add byte [eax], al
            0x00402e78      0000           add byte [eax], al
            0x00402e7a      0000           add byte [eax], al
            0x00402e7c      0000           add byte [eax], al
            0x00402e7e      0000           add byte [eax], al
            0x00402e80      0000           add byte [eax], al
            0x00402e82      0000           add byte [eax], al
            0x00402e84      0000           add byte [eax], al
            0x00402e86      0000           add byte [eax], al
            0x00402e88      0000           add byte [eax], al
            0x00402e8a      0000           add byte [eax], al
            0x00402e8c      0000           add byte [eax], al
            0x00402e8e      0000           add byte [eax], al
            0x00402e90      0000           add byte [eax], al
            0x00402e92      0000           add byte [eax], al
            0x00402e94      0000           add byte [eax], al
            0x00402e96      0000           add byte [eax], al
            0x00402e98      0000           add byte [eax], al
            0x00402e9a      0000           add byte [eax], al
            0x00402e9c      0000           add byte [eax], al
            0x00402e9e      0000           add byte [eax], al
            0x00402ea0      0000           add byte [eax], al
            0x00402ea2      0000           add byte [eax], al
            0x00402ea4      0000           add byte [eax], al
            0x00402ea6      0000           add byte [eax], al
            0x00402ea8      0000           add byte [eax], al
            0x00402eaa      0000           add byte [eax], al
            0x00402eac      0000           add byte [eax], al
            0x00402eae      0000           add byte [eax], al
            0x00402eb0      0000           add byte [eax], al
            0x00402eb2      0000           add byte [eax], al
            0x00402eb4      0000           add byte [eax], al
            0x00402eb6      0000           add byte [eax], al
            0x00402eb8      0000           add byte [eax], al
            0x00402eba      0000           add byte [eax], al
            0x00402ebc      0000           add byte [eax], al
            0x00402ebe      0000           add byte [eax], al
            0x00402ec0      0000           add byte [eax], al
            0x00402ec2      0000           add byte [eax], al
            0x00402ec4      0000           add byte [eax], al
            0x00402ec6      0000           add byte [eax], al
            0x00402ec8      0000           add byte [eax], al
            0x00402eca      0000           add byte [eax], al
            0x00402ecc      0000           add byte [eax], al
            0x00402ece      0000           add byte [eax], al
            0x00402ed0      0000           add byte [eax], al
            0x00402ed2      0000           add byte [eax], al
            0x00402ed4      0000           add byte [eax], al
            0x00402ed6      0000           add byte [eax], al
            0x00402ed8      0000           add byte [eax], al
            0x00402eda      0000           add byte [eax], al
            0x00402edc      0000           add byte [eax], al
            0x00402ede      0000           add byte [eax], al
            0x00402ee0      0000           add byte [eax], al
            0x00402ee2      0000           add byte [eax], al
            0x00402ee4      0000           add byte [eax], al
            0x00402ee6      0000           add byte [eax], al
            0x00402ee8      0000           add byte [eax], al
            0x00402eea      0000           add byte [eax], al
            0x00402eec      0000           add byte [eax], al
            0x00402eee      0000           add byte [eax], al
            0x00402ef0      0000           add byte [eax], al
            0x00402ef2      0000           add byte [eax], al
            0x00402ef4      0000           add byte [eax], al
            0x00402ef6      0000           add byte [eax], al
            0x00402ef8      0000           add byte [eax], al
            0x00402efa      0000           add byte [eax], al
            0x00402efc      0000           add byte [eax], al
            0x00402efe      0000           add byte [eax], al
            0x00402f00      0000           add byte [eax], al
            0x00402f02      0000           add byte [eax], al
            0x00402f04      0000           add byte [eax], al
            0x00402f06      0000           add byte [eax], al
            0x00402f08      0000           add byte [eax], al
            0x00402f0a      0000           add byte [eax], al
            0x00402f0c      0000           add byte [eax], al
            0x00402f0e      0000           add byte [eax], al
            0x00402f10      0000           add byte [eax], al
            0x00402f12      0000           add byte [eax], al
            0x00402f14      0000           add byte [eax], al
            0x00402f16      0000           add byte [eax], al
            0x00402f18      0000           add byte [eax], al
            0x00402f1a      0000           add byte [eax], al
            0x00402f1c      0000           add byte [eax], al
            0x00402f1e      0000           add byte [eax], al
            0x00402f20      0000           add byte [eax], al
            0x00402f22      0000           add byte [eax], al
            0x00402f24      0000           add byte [eax], al
            0x00402f26      0000           add byte [eax], al
            0x00402f28      0000           add byte [eax], al
            0x00402f2a      0000           add byte [eax], al
            0x00402f2c      0000           add byte [eax], al
            0x00402f2e      0000           add byte [eax], al
            0x00402f30      0000           add byte [eax], al
            0x00402f32      0000           add byte [eax], al
            0x00402f34      0000           add byte [eax], al
            0x00402f36      0000           add byte [eax], al
            0x00402f38      0000           add byte [eax], al
            0x00402f3a      0000           add byte [eax], al
            0x00402f3c      0000           add byte [eax], al
            0x00402f3e      0000           add byte [eax], al
            0x00402f40      0000           add byte [eax], al
            0x00402f42      0000           add byte [eax], al
            0x00402f44      0000           add byte [eax], al
            0x00402f46      0000           add byte [eax], al
            0x00402f48      0000           add byte [eax], al
            0x00402f4a      0000           add byte [eax], al
            0x00402f4c      0000           add byte [eax], al
            0x00402f4e      0000           add byte [eax], al
            0x00402f50      0000           add byte [eax], al
            0x00402f52      0000           add byte [eax], al
            0x00402f54      0000           add byte [eax], al
            0x00402f56      0000           add byte [eax], al
            0x00402f58      0000           add byte [eax], al
            0x00402f5a      0000           add byte [eax], al
            0x00402f5c      0000           add byte [eax], al
            0x00402f5e      0000           add byte [eax], al
            0x00402f60      0000           add byte [eax], al
            0x00402f62      0000           add byte [eax], al
            0x00402f64      0000           add byte [eax], al
            0x00402f66      0000           add byte [eax], al
            0x00402f68      0000           add byte [eax], al
            0x00402f6a      0000           add byte [eax], al
            0x00402f6c      0000           add byte [eax], al
            0x00402f6e      0000           add byte [eax], al
            0x00402f70      0000           add byte [eax], al
            0x00402f72      0000           add byte [eax], al
            0x00402f74      0000           add byte [eax], al
            0x00402f76      0000           add byte [eax], al
            0x00402f78      0000           add byte [eax], al
            0x00402f7a      0000           add byte [eax], al
            0x00402f7c      0000           add byte [eax], al
            0x00402f7e      0000           add byte [eax], al
            0x00402f80      0000           add byte [eax], al
            0x00402f82      0000           add byte [eax], al
            0x00402f84      0000           add byte [eax], al
            0x00402f86      0000           add byte [eax], al
            0x00402f88      0000           add byte [eax], al
            0x00402f8a      0000           add byte [eax], al
            0x00402f8c      0000           add byte [eax], al
            0x00402f8e      0000           add byte [eax], al
            0x00402f90      0000           add byte [eax], al
            0x00402f92      0000           add byte [eax], al
            0x00402f94      0000           add byte [eax], al
            0x00402f96      0000           add byte [eax], al
            0x00402f98      0000           add byte [eax], al
            0x00402f9a      0000           add byte [eax], al
            0x00402f9c      0000           add byte [eax], al
            0x00402f9e      0000           add byte [eax], al
            0x00402fa0      0000           add byte [eax], al
            0x00402fa2      0000           add byte [eax], al
            0x00402fa4      0000           add byte [eax], al
            0x00402fa6      0000           add byte [eax], al
            0x00402fa8      0000           add byte [eax], al
            0x00402faa      0000           add byte [eax], al
            0x00402fac      0000           add byte [eax], al
            0x00402fae      0000           add byte [eax], al
            0x00402fb0      0000           add byte [eax], al
            0x00402fb2      0000           add byte [eax], al
            0x00402fb4      0000           add byte [eax], al
            0x00402fb6      0000           add byte [eax], al
            0x00402fb8      0000           add byte [eax], al
            0x00402fba      0000           add byte [eax], al
            0x00402fbc      0000           add byte [eax], al
            0x00402fbe      0000           add byte [eax], al
            0x00402fc0      0000           add byte [eax], al
            0x00402fc2      0000           add byte [eax], al
            0x00402fc4      0000           add byte [eax], al
            0x00402fc6      0000           add byte [eax], al
            0x00402fc8      0000           add byte [eax], al
            0x00402fca      0000           add byte [eax], al
            0x00402fcc      0000           add byte [eax], al
            0x00402fce      0000           add byte [eax], al
            0x00402fd0      0000           add byte [eax], al
            0x00402fd2      0000           add byte [eax], al
            0x00402fd4      0000           add byte [eax], al
            0x00402fd6      0000           add byte [eax], al
            0x00402fd8      0000           add byte [eax], al
            0x00402fda      0000           add byte [eax], al
            0x00402fdc      0000           add byte [eax], al
            0x00402fde      0000           add byte [eax], al
            0x00402fe0      0000           add byte [eax], al
            0x00402fe2      0000           add byte [eax], al
            0x00402fe4      0000           add byte [eax], al
            0x00402fe6      0000           add byte [eax], al
            0x00402fe8      0000           add byte [eax], al
            0x00402fea      0000           add byte [eax], al
            0x00402fec      0000           add byte [eax], al
            0x00402fee      0000           add byte [eax], al
            0x00402ff0      0000           add byte [eax], al
            0x00402ff2      0000           add byte [eax], al
            0x00402ff4      0000           add byte [eax], al
            0x00402ff6      0000           add byte [eax], al
            0x00402ff8      0000           add byte [eax], al
            0x00402ffa      0000           add byte [eax], al
            0x00402ffc      0000           add byte [eax], al
            0x00402ffe      0000           add byte [eax], al
            ;-- section..idata:
            0x00403000      7830           js 0x403032                 ; [02] -rw- section size 4096 named .idata
            0x00403002      0000           add byte [eax], al
            0x00403004      0000           add byte [eax], al
            0x00403006      0000           add byte [eax], al
            0x00403008      0000           add byte [eax], al
            0x0040300a      0000           add byte [eax], al
            0x0040300c      90             nop
            0x0040300d      3200           xor al, byte [eax]
            0x0040300f      008431000010.  add byte [ecx + esi + 0x31100000], al
            0x00403016      0000           add byte [eax], al
            0x00403018      0000           add byte [eax], al
            0x0040301a      0000           add byte [eax], al
            0x0040301c      0000           add byte [eax], al
            0x0040301e      0000           add byte [eax], al
            0x00403020      9b             wait
            0x00403021      3200           xor al, byte [eax]
            0x00403023      001c32         add byte [edx + esi], bl
            0x00403026      0000           add byte [eax], al
            0x00403028      3c31           cmp al, 0x31                ; 49
            0x0040302a      0000           add byte [eax], al
            0x0040302c      0000           add byte [eax], al
            0x0040302e      0000           add byte [eax], al
            0x00403030      0000           add byte [eax], al
            0x00403032      0000           add byte [eax], al
            0x00403034      a832           test al, 0x32               ; 50
            0x00403036      0000           add byte [eax], al
            0x00403038      48             dec eax
            0x00403039      3200           xor al, byte [eax]
            0x0040303b      004c3100       add byte [ecx + esi], cl
            0x0040303f      0000           add byte [eax], al
            0x00403041      0000           add byte [eax], al
            0x00403043      0000           add byte [eax], al
            0x00403045      0000           add byte [eax], al
            0x00403047      00b532000058   add byte [ebp + 0x58000032], dh
            0x0040304d      3200           xor al, byte [eax]
            0x0040304f      00743100       add byte [ecx + esi], dh
            0x00403053      0000           add byte [eax], al
            0x00403055      0000           add byte [eax], al
            0x00403057      0000           add byte [eax], al
            0x00403059      0000           add byte [eax], al
            0x0040305b      00bf32000080   add byte [edi - 0x7fffffce], bh
            0x00403061      3200           xor al, byte [eax]
            0x00403063      0000           add byte [eax], al
            0x00403065      0000           add byte [eax], al
            0x00403067      0000           add byte [eax], al
            0x00403069      0000           add byte [eax], al
            0x0040306b      0000           add byte [eax], al
            0x0040306d      0000           add byte [eax], al
            0x0040306f      0000           add byte [eax], al
            0x00403071      0000           add byte [eax], al
            0x00403073      0000           add byte [eax], al
            0x00403075      0000           add byte [eax], al
            0x00403077      00cc           add ah, cl
            0x00403079      3200           xor al, byte [eax]
            0x0040307b      00d8           add al, bl
            0x0040307d      3200           xor al, byte [eax]
            0x0040307f      00ec           add ah, ch
            0x00403081      3200           xor al, byte [eax]
            0x00403083      00fa           add dl, bh
            0x00403085      3200           xor al, byte [eax]
            0x00403087      000e           add byte [esi], cl
            0x00403089      3300           xor eax, dword [eax]
            0x0040308b      001c33         add byte [ebx + esi], bl
            0x0040308e      0000           add byte [eax], al
            0x00403090      2c33           sub al, 0x33                ; 51
            0x00403092      0000           add byte [eax], al
            0x00403094      3a33           cmp dh, byte [ebx]
            0x00403096      0000           add byte [eax], al
            0x00403098      46             inc esi
            0x00403099      3300           xor eax, dword [eax]
            0x0040309b      00543300       add byte [ebx + esi], dl
            0x0040309f      006033         add byte [eax + 0x33], ah
            0x004030a2      0000           add byte [eax], al
            0x004030a4      6e             outsb dx, byte [esi]
            0x004030a5      3300           xor eax, dword [eax]
            0x004030a7      00803300008c   add byte [eax - 0x73ffffcd], al
            0x004030ad      3300           xor eax, dword [eax]
            0x004030af      009e330000b6   add byte [esi - 0x49ffffcd], bl
            0x004030b5      3300           xor eax, dword [eax]
            0x004030b7      00c4           add ah, al
            0x004030b9      3300           xor eax, dword [eax]
            0x004030bb      00d8           add al, bl
            0x004030bd      3300           xor eax, dword [eax]
            0x004030bf      00e4           add ah, ah
            0x004030c1      3300           xor eax, dword [eax]
            0x004030c3      00f2           add dl, dh
            0x004030c5      3300           xor eax, dword [eax]
            0x004030c7      0002           add byte [edx], al
            0x004030c9      3400           xor al, 0
            0x004030cb      000e           add byte [esi], cl
            0x004030cd      3400           xor al, 0
            0x004030cf      001e           add byte [esi], bl
            0x004030d1      3400           xor al, 0
            0x004030d3      002e           add byte [esi], ch
            0x004030d5      3400           xor al, 0
            0x004030d7      004034         add byte [eax + 0x34], al
            0x004030da      0000           add byte [eax], al
            0x004030dc      4e             dec esi
            0x004030dd      3400           xor al, 0
            0x004030df      006034         add byte [eax + 0x34], ah
            0x004030e2      0000           add byte [eax], al
            0x004030e4      7234           jb 0x40311a
            0x004030e6      0000           add byte [eax], al
            0x004030e8      843400         test byte [eax + eax], dh
            0x004030eb      0098340000a6   add byte [eax - 0x59ffffcc], bl
            0x004030f1      3400           xor al, 0
            0x004030f3      00b2340000be   add byte [edx - 0x41ffffcc], dh
            0x004030f9      34             invalid
            0x004030fa      0000           add byte [eax], al
            0x004030fc      cc             int3
            0x004030fd      3400           xor al, 0
            0x004030ff      00d4           add ah, dl
            0x00403101      3400           xor al, 0
            0x00403103      00e2           add dl, ah
            0x00403105      3400           xor al, 0
            0x00403107      00f4           add ah, dh
            0x00403109      3400           xor al, 0
            0x0040310b      0000           add byte [eax], al
            0x0040310d      0000           add byte [eax], al
            0x0040310f      0002           add byte [edx], al
            0x00403111      3500001235     xor eax, 0x35120000
            0x00403116      0000           add byte [eax], al
            0x00403118      1e             push ds
            0x00403119      3500002c35     xor eax, 0x352c0000
            0x0040311e      0000           add byte [eax], al
            0x00403120      3a3500004435   cmp dh, byte [0x35440000]   ; [0x35440000:1]=255
            0x00403126      0000           add byte [eax], al
            0x00403128      52             push edx
            0x00403129      3500005e35     xor eax, 0x355e0000
            0x0040312e      0000           add byte [eax], al
            0x00403130      7235           jb 0x403167
            0x00403132      0000           add byte [eax], al
            0x00403134      7e35           jle 0x40316b
            0x00403136      0000           add byte [eax], al
            0x00403138      0000           add byte [eax], al
            0x0040313a      0000           add byte [eax], al
            0x0040313c      8c             invalid
            0x0040313d      350000a235     xor eax, 0x35a20000
            0x00403142      0000           add byte [eax], al
            0x00403144      b435           mov ah, 0x35                ; '5' ; 53
            0x00403146      0000           add byte [eax], al
            0x00403148      0000           add byte [eax], al
            0x0040314a      0000           add byte [eax], al
            0x0040314c      c4350000d035   les esi, [0x35d00000]
            0x00403152      0000           add byte [eax], al
            0x00403154      dc350000e835   fdiv qword [0x35e80000]
            0x0040315a      0000           add byte [eax], al
            0x0040315c      fa             cli
            0x0040315d      3500000c36     xor eax, 0x360c0000
            0x00403162      0000           add byte [eax], al
            0x00403164      16             push ss
            0x00403165      360000         add byte ss:[eax], al
            0x00403168      2036           and byte [esi], dh
            0x0040316a      0000           add byte [eax], al
            0x0040316c      3036           xor byte [esi], dh
            0x0040316e      0000           add byte [eax], al
            0x00403170      0000           add byte [eax], al
            0x00403172      0000           add byte [eax], al
            0x00403174      3c36           cmp al, 0x36                ; 54
            0x00403176      0000           add byte [eax], al
            0x00403178      50             push eax
            0x00403179      360000         add byte ss:[eax], al
            0x0040317c      64360000       add byte ss:[eax], al
            0x00403180      0000           add byte [eax], al
            0x00403182      0000           add byte [eax], al
            ;-- KillTimer:
            0x00403184      .dword 0x000032cc ; reloc.USER32.dll_KillTimer
            ;-- GetSystemMetrics:
            0x00403188      .dword 0x000032d8 ; reloc.USER32.dll_GetSystemMetrics
            ;-- LoadCursorA:
            0x0040318c      .dword 0x000032ec ; reloc.USER32.dll_LoadCursorA
            ;-- LoadAcceleratorsA:
            0x00403190      .dword 0x000032fa ; reloc.USER32.dll_LoadAcceleratorsA
            ;-- MessageBeep:
            0x00403194      .dword 0x0000330e ; reloc.USER32.dll_MessageBeep
            ;-- GetWindowRect:
            0x00403198      .dword 0x0000331c ; reloc.USER32.dll_GetWindowRect
            ;-- LoadStringA:
            0x0040319c      .dword 0x0000332c ; reloc.USER32.dll_LoadStringA
            ;-- LoadIconA:
            0x004031a0      .dword 0x0000333a ; reloc.USER32.dll_LoadIconA
            ;-- LoadBitmapA:
            0x004031a4      .dword 0x00003346 ; reloc.USER32.dll_LoadBitmapA
            ;-- SetFocus:
            0x004031a8      .dword 0x00003354 ; reloc.USER32.dll_SetFocus
            ;-- MessageBoxA:
            0x004031ac      .dword 0x00003360 ; reloc.USER32.dll_MessageBoxA
            ;-- PostQuitMessage:
            0x004031b0      .dword 0x0000336e ; reloc.USER32.dll_PostQuitMessage
            ;-- WinHelpA:
            0x004031b4      .dword 0x00003380 ; reloc.USER32.dll_WinHelpA
            ;-- InvalidateRect:
            0x004031b8      .dword 0x0000338c ; reloc.USER32.dll_InvalidateRect
            ;-- TranslateAcceleratorA:
            0x004031bc      .dword 0x0000339e ; reloc.USER32.dll_TranslateAcceleratorA
            ;-- MoveWindow:
            0x004031c0      .dword 0x000033b6 ; reloc.USER32.dll_MoveWindow
            ;-- TranslateMessage:
            0x004031c4      .dword 0x000033c4 ; reloc.USER32.dll_TranslateMessage
            ;-- LoadMenuA:
            0x004031c8      .dword 0x000033d8 ; reloc.USER32.dll_LoadMenuA
            ;-- ShowWindow:
            0x004031cc      .dword 0x000033e4 ; reloc.USER32.dll_ShowWindow
            ;-- SendMessageA:
            0x004031d0      .dword 0x000033f2 ; reloc.USER32.dll_SendMessageA
            ;-- SetTimer:
            0x004031d4      .dword 0x00003402 ; reloc.USER32.dll_SetTimer
            ;-- SetWindowPos:
            0x004031d8      .dword 0x0000340e ; reloc.USER32.dll_SetWindowPos
            ;-- UpdateWindow:
            0x004031dc      .dword 0x0000341e ; reloc.USER32.dll_UpdateWindow
            ;-- RegisterClassA:
            0x004031e0      .dword 0x0000342e ; reloc.USER32.dll_RegisterClassA
            ;-- BeginPaint:
            0x004031e4      .dword 0x00003440 ; reloc.USER32.dll_BeginPaint
            ;-- CreateWindowExA:
            0x004031e8      .dword 0x0000344e ; reloc.USER32.dll_CreateWindowExA
            ;-- DefWindowProcA:
            0x004031ec      .dword 0x00003460 ; reloc.USER32.dll_DefWindowProcA
            ;-- DialogBoxParamA:
            0x004031f0      .dword 0x00003472 ; reloc.USER32.dll_DialogBoxParamA
            ;-- DispatchMessageA:
            0x004031f4      .dword 0x00003484 ; reloc.USER32.dll_DispatchMessageA
            ;-- DrawMenuBar:
            0x004031f8      .word 0x3498
            ;-- EndDialog:
            0x004031fc      .dword 0x000034a6 ; reloc.USER32.dll_EndDialog
            ;-- EndPaint:
            0x00403200      .dword 0x000034b2 ; reloc.USER32.dll_EndPaint
            ;-- FindWindowA:
            0x00403204      .dword 0x000034be ; reloc.USER32.dll_FindWindowA
            ;-- GetDC:
            0x00403208      .dword 0x000034cc ; reloc.USER32.dll_GetDC
            ;-- GetDlgItem:
            0x0040320c      .dword 0x000034d4 ; reloc.USER32.dll_GetDlgItem
            ;-- GetDlgItemTextA:
            0x00403210      .dword 0x000034e2 ; reloc.USER32.dll_GetDlgItemTextA
            ;-- GetMessageA:
            0x00403214      .dword 0x000034f4 ; reloc.USER32.dll_GetMessageA
            0x00403218      0000           add byte [eax], al
            0x0040321a      0000           add byte [eax], al
            ;-- GetLocalTime:
            0x0040321c      .dword 0x00003502 ; reloc.KERNEL32.dll_GetLocalTime
            ;-- OpenFile:
            0x00403220      .dword 0x00003512 ; reloc.KERNEL32.dll_OpenFile
            ;-- GlobalFree:
            0x00403224      .dword 0x0000351e ; reloc.KERNEL32.dll_GlobalFree
            ;-- GlobalAlloc:
            0x00403228      .dword 0x0000352c ; reloc.KERNEL32.dll_GlobalAlloc
            ;-- lstrlen:
            0x0040322c      .dword 0x0000353a ; reloc.KERNEL32.dll_lstrlen
            ;-- CloseHandle:
            0x00403230      .dword 0x00003544 ; reloc.KERNEL32.dll_CloseHandle
            ;-- WriteFile:
            0x00403234      .dword 0x00003552 ; reloc.KERNEL32.dll_WriteFile
            ;-- GetModuleHandleA:
            0x00403238      .dword 0x0000355e ; reloc.KERNEL32.dll_GetModuleHandleA
            ;-- ReadFile:
            0x0040323c      .dword 0x00003572 ; reloc.KERNEL32.dll_ReadFile
            ;-- ExitProcess:
            0x00403240      .dword 0x0000357e ; reloc.KERNEL32.dll_ExitProcess
            0x00403244      0000           add byte [eax], al
            0x00403246      0000           add byte [eax], al
            ;-- InitCommonControls:
            0x00403248      8c             invalid
            0x00403249  ~   350000a235     xor eax, 0x35a20000
            ;-- CreateToolbarEx:
            0x0040324c  ~   a2350000b4     mov byte [0xb4000035], al   ; [0xb4000035:1]=255
            ;-- CreateToolbar:
            0x00403250      b435           mov ah, 0x35                ; '5' ; 53
            0x00403252      0000           add byte [eax], al
            0x00403254      0000           add byte [eax], al
            0x00403256      0000           add byte [eax], al
            ;-- TextOutA:
            0x00403258      .dword 0x000035c4 ; reloc.GDI32.dll_TextOutA
            ;-- StartPage:
            0x0040325c      .dword 0x000035d0 ; reloc.GDI32.dll_StartPage
            ;-- StartDocA:
            0x00403260      .dword 0x000035dc ; reloc.GDI32.dll_StartDocA
            ;-- GetTextMetricsA:
            0x00403264      .dword 0x000035e8 ; reloc.GDI32.dll_GetTextMetricsA
            ;-- GetStockObject:
            0x00403268      .dword 0x000035fa ; reloc.GDI32.dll_GetStockObject
            ;-- EndPage:
            0x0040326c      .dword 0x0000360c ; reloc.GDI32.dll_EndPage
            ;-- EndDoc:
            0x00403270      .dword 0x00003616 ; reloc.GDI32.dll_EndDoc
            ;-- DeleteObject:
            0x00403274      .dword 0x00003620 ; reloc.GDI32.dll_DeleteObject
            ;-- DeleteDC:
            0x00403278      .dword 0x00003630 ; reloc.GDI32.dll_DeleteDC
            0x0040327c      0000           add byte [eax], al
            0x0040327e      0000           add byte [eax], al
            ;-- GetSaveFileNameA:
            0x00403280      .dword 0x0000363c ; reloc.COMDLG32.dll_GetSaveFileNameA
            ;-- GetOpenFileNameA:
            0x00403284      .dword 0x00003650 ; reloc.COMDLG32.dll_GetOpenFileNameA
            ;-- PrintDlgA:
            0x00403288      .dword 0x00003664 ; reloc.COMDLG32.dll_PrintDlgA
            0x0040328c      0000           add byte [eax], al
            0x0040328e      0000           add byte [eax], al
            0x00403290      55             push ebp
            0x00403291      53             push ebx
            0x00403292      45             inc ebp
            0x00403293      52             push edx
            0x00403294      3332           xor esi, dword [edx]
            0x00403296      2e646c         insb byte es:[edi], dx
            0x00403299      6c             insb byte es:[edi], dx
            0x0040329a      004b45         add byte [ebx + 0x45], cl
            0x0040329d      52             push edx
            0x0040329e      4e             dec esi
            0x0040329f      45             inc ebp
            0x004032a0      4c             dec esp
            0x004032a1      3332           xor esi, dword [edx]
            0x004032a3      2e646c         insb byte es:[edi], dx
            0x004032a6      6c             insb byte es:[edi], dx
            0x004032a7      00434f         add byte [ebx + 0x4f], al
            0x004032aa      4d             dec ebp
            0x004032ab      43             inc ebx
            0x004032ac      54             push esp
            0x004032ad      4c             dec esp
            0x004032ae      3332           xor esi, dword [edx]
            0x004032b0      2e44           inc esp
            0x004032b2      4c             dec esp
            0x004032b3      4c             dec esp
            0x004032b4      004744         add byte [edi + 0x44], al
            0x004032b7      49             dec ecx
            0x004032b8      3332           xor esi, dword [edx]
            0x004032ba      2e646c         insb byte es:[edi], dx
            0x004032bd      6c             insb byte es:[edi], dx
            0x004032be      00434f         add byte [ebx + 0x4f], al
            0x004032c1      4d             dec ebp
            0x004032c2      44             inc esp
            0x004032c3      4c             dec esp
            0x004032c4      47             inc edi
            0x004032c5      3332           xor esi, dword [edx]
            0x004032c7      2e646c         insb byte es:[edi], dx
            0x004032ca      6c             insb byte es:[edi], dx
            0x004032cb      0000           add byte [eax], al
            0x004032cd      004b69         add byte [ebx + 0x69], cl
            0x004032d0      6c             insb byte es:[edi], dx
            0x004032d1      6c             insb byte es:[edi], dx
            0x004032d2      54             push esp
            0x004032d3      696d65720000.  imul ebp, dword [ebp + 0x65], 0x72
            0x004032da      47             inc edi
            0x004032db      657453         je 0x403331
            0x004032de      7973           jns 0x403353
            0x004032e0      7465           je 0x403347
            0x004032e2      6d             insd dword es:[edi], dx
            0x004032e3      4d             dec ebp
            0x004032e4      657472         je 0x403359
            0x004032e7      696373000000.  imul esp, dword [ebx + 0x73], 0
            0x004032ee      4c             dec esp
            0x004032ef      6f             outsd dx, dword [esi]
            0x004032f0      61             popal
            0x004032f1      6443           inc ebx
            0x004032f3      7572           jne 0x403367
            0x004032f5      736f           jae 0x403366
            0x004032f7      7241           jb 0x40333a
            0x004032f9      0000           add byte [eax], al
            0x004032fb      00             invalid
            0x004032fc      4c             dec esp
            0x004032fd      6f             outsd dx, dword [esi]
            0x004032fe      61             popal
            0x004032ff      6441           inc ecx
            0x00403301      636365         arpl word [ebx + 0x65], sp
            0x00403304      6c             insb byte es:[edi], dx
            0x00403305      657261         jb 0x403369
            0x00403308      746f           je 0x403379
            0x0040330a      7273           jb 0x40337f
            0x0040330c      41             inc ecx
            0x0040330d      0000           add byte [eax], al
            0x0040330f      004d65         add byte [ebp + 0x65], cl
            0x00403312      7373           jae 0x403387
            0x00403314      61             popal
            0x00403315      676542         inc edx
            0x00403318      65657000       jo 0x40331c
            0x0040331c      0000           add byte [eax], al
            0x0040331e      47             inc edi
            0x0040331f      657457         je 0x403379
            0x00403322      696e646f7752.  imul ebp, dword [esi + 0x64], 0x6552776f
            0x00403329      63740000       arpl word [eax + eax], si
            0x0040332d      004c6f61       add byte [edi + ebp*2 + 0x61], cl
            0x00403331      6453           push ebx
            0x00403333      7472           je 0x4033a7
            0x00403335      696e67410000.  imul ebp, dword [esi + 0x67], 0x41
            0x0040333c      4c             dec esp
            0x0040333d      6f             outsd dx, dword [esi]
            0x0040333e      61             popal
            0x0040333f      6449           dec ecx
            0x00403341      636f6e         arpl word [edi + 0x6e], bp
            0x00403344      41             inc ecx
            0x00403345      0000           add byte [eax], al
            0x00403347      004c6f61       add byte [edi + ebp*2 + 0x61], cl
            0x0040334b      6442           inc edx
            0x0040334d      69746d617041.  imul esi, dword [ebp + ebp*2 + 0x61], 0x4170
            0x00403355      005365         add byte [ebx + 0x65], dl
            0x00403358      7446           je 0x4033a0
            0x0040335a      6f             outsd dx, dword [esi]
            0x0040335b      637573         arpl word [ebp + 0x73], si
            0x0040335e      0000           add byte [eax], al
            0x00403360      0000           add byte [eax], al
            0x00403362      4d             dec ebp
            0x00403363      657373         jae 0x4033d9
            0x00403366      61             popal
            0x00403367      676542         inc edx
            0x0040336a      6f             outsd dx, dword [esi]
            0x0040336b      7841           js 0x4033ae
            0x0040336d      0000           add byte [eax], al
            0x0040336f      00506f         add byte [eax + 0x6f], dl
            0x00403372      7374           jae 0x4033e8
            0x00403374      51             push ecx
            0x00403375      7569           jne 0x4033e0
            0x00403377      744d           je 0x4033c6
            0x00403379      657373         jae 0x4033ef
            0x0040337c      61             popal
            0x0040337d      67650000       add byte gs:[bx + si], al
            0x00403381      005769         add byte [edi + 0x69], dl
            0x00403384      6e             outsb dx, byte [esi]
            0x00403385      48             dec eax
            0x00403386      656c           insb byte es:[edi], dx
            0x00403388      7041           jo 0x4033cb
            0x0040338a      0000           add byte [eax], al
            0x0040338c      0000           add byte [eax], al
            0x0040338e      49             dec ecx
            0x0040338f      6e             outsb dx, byte [esi]
            0x00403390      7661           jbe 0x4033f3
            0x00403392      6c             insb byte es:[edi], dx
            0x00403393      696461746552.  imul esp, dword [ecx + 0x74], 0x63655265
            0x0040339b      7400           je 0x40339d
            0x0040339d      0000           add byte [eax], al
            0x0040339f      00547261       add byte [edx + esi*2 + 0x61], dl
            0x004033a3      6e             outsb dx, byte [esi]
            0x004033a4      736c           jae 0x403412
            0x004033a6      61             popal
            0x004033a7      7465           je 0x40340e
            0x004033a9      41             inc ecx
            0x004033aa      636365         arpl word [ebx + 0x65], sp
            0x004033ad      6c             insb byte es:[edi], dx
            0x004033ae      657261         jb 0x403412
            0x004033b1      746f           je 0x403422
            0x004033b3      7241           jb 0x4033f6
            0x004033b5      0000           add byte [eax], al
            0x004033b7      004d6f         add byte [ebp + 0x6f], cl
            0x004033ba      7665           jbe 0x403421
            0x004033bc      57             push edi
            0x004033bd      696e646f7700.  imul ebp, dword [esi + 0x64], 0x776f
            0x004033c4      0000           add byte [eax], al
            0x004033c6      54             push esp
            0x004033c7      7261           jb 0x40342a
            0x004033c9      6e             outsb dx, byte [esi]
            0x004033ca      736c           jae 0x403438
            0x004033cc      61             popal
            0x004033cd      7465           je 0x403434
            0x004033cf      4d             dec ebp
            0x004033d0      657373         jae 0x403446
            0x004033d3      61             popal
            0x004033d4      67650000       add byte gs:[bx + si], al
            0x004033d8      0000           add byte [eax], al
            0x004033da      4c             dec esp
            0x004033db      6f             outsd dx, dword [esi]
            0x004033dc      61             popal
            0x004033dd      644d           dec ebp
            0x004033df      656e           outsb dx, byte gs:[esi]
            0x004033e1      7541           jne 0x403424
            0x004033e3      0000           add byte [eax], al
            0x004033e5      005368         add byte [ebx + 0x68], dl
            0x004033e8      6f             outsd dx, dword [esi]
            0x004033e9      7757           ja 0x403442
            0x004033eb      696e646f7700.  imul ebp, dword [esi + 0x64], 0x776f
            0x004033f2      0000           add byte [eax], al
            0x004033f4      53             push ebx
            0x004033f5      656e           outsb dx, byte gs:[esi]
            0x004033f7      644d           dec ebp
            0x004033f9      657373         jae 0x40346f
            0x004033fc      61             popal
            0x004033fd      676541         inc ecx
            0x00403400      0000           add byte [eax], al
            0x00403402      0000           add byte [eax], al
            0x00403404      53             push ebx
            0x00403405      657454         je 0x40345c
            0x00403408      696d65720000.  imul ebp, dword [ebp + 0x65], 0x72
            0x0040340f      005365         add byte [ebx + 0x65], dl
            0x00403412      7457           je 0x40346b
            0x00403414      696e646f7750.  imul ebp, dword [esi + 0x64], 0x6f50776f
            0x0040341b      7300           jae 0x40341d
            0x0040341d      0000           add byte [eax], al
            0x0040341f      005570         add byte [ebp + 0x70], dl
            0x00403422      6461           popal
            0x00403424      7465           je 0x40348b
            0x00403426      57             push edi
            0x00403427      696e646f7700.  imul ebp, dword [esi + 0x64], 0x776f
            0x0040342e      0000           add byte [eax], al
            0x00403430      52             push edx
            0x00403431      656769737465.  imul esi, dword gs:[bp + di + 0x74], 0x6c437265
            0x0040343a      61             popal
            0x0040343b      7373           jae 0x4034b0
            0x0040343d      41             inc ecx
            0x0040343e      0000           add byte [eax], al
            0x00403440      0000           add byte [eax], al
            0x00403442      42             inc edx
            0x00403443      6567696e5061.  imul ebp, dword gs:[bp + 0x50], 0x746e6961
            0x0040344c      0000           add byte [eax], al
            0x0040344e      0000           add byte [eax], al
            0x00403450      43             inc ebx
            0x00403451      7265           jb 0x4034b8
            0x00403453      61             popal
            0x00403454      7465           je 0x4034bb
            0x00403456      57             push edi
            0x00403457      696e646f7745.  imul ebp, dword [esi + 0x64], 0x7845776f
            0x0040345e      41             inc ecx
            0x0040345f      0000           add byte [eax], al
            0x00403461      00446566       add byte [ebp + 0x66], al
            0x00403465      57             push edi
            0x00403466      696e646f7750.  imul ebp, dword [esi + 0x64], 0x7250776f
            0x0040346d      6f             outsd dx, dword [esi]
            0x0040346e      634100         arpl word [ecx], ax
            0x00403471      0000           add byte [eax], al
            0x00403473      00446961       add byte [ecx + ebp*2 + 0x61], al
            0x00403477      6c             insb byte es:[edi], dx
            0x00403478      6f             outsd dx, dword [esi]
            0x00403479      6742           inc edx
            0x0040347b      6f             outsd dx, dword [esi]
            0x0040347c      7850           js 0x4034ce
            0x0040347e      61             popal
            0x0040347f      7261           jb 0x4034e2
            0x00403481      6d             insd dword es:[edi], dx
            0x00403482      41             inc ecx
            0x00403483      0000           add byte [eax], al
            0x00403485      00446973       add byte [ecx + ebp*2 + 0x73], al
            0x00403489      7061           jo 0x4034ec
            0x0040348b      7463           je 0x4034f0
            0x0040348d      684d657373     push 0x7373654d             ; 'Mess'
            0x00403492      61             popal
            0x00403493      676541         inc ecx
            0x00403496      0000           add byte [eax], al
            0x00403498      0000           add byte [eax], al
            0x0040349a      44             inc esp
            0x0040349b      7261           jb 0x4034fe
            0x0040349d      774d           ja 0x4034ec
            0x0040349f      656e           outsb dx, byte gs:[esi]
            0x004034a1      7542           jne 0x4034e5
            0x004034a3      61             popal
            0x004034a4      7200           jb 0x4034a6
            0x004034a6      0000           add byte [eax], al
            0x004034a8      45             inc ebp
            0x004034a9      6e             outsb dx, byte [esi]
            0x004034aa      6444           inc esp
            0x004034ac      69616c6f6700.  imul esp, dword [ecx + 0x6c], 0x676f
            0x004034b3      00456e         add byte [ebp + 0x6e], al
            0x004034b6      6450           push eax
            0x004034b8      61             popal
            0x004034b9      696e74000000.  imul ebp, dword [esi + 0x74], 0
            0x004034c0      46             inc esi
            0x004034c1      696e6457696e.  imul ebp, dword [esi + 0x64], 0x646e6957
            0x004034c8      6f             outsd dx, dword [esi]
            0x004034c9      7741           ja 0x40350c
            0x004034cb      0000           add byte [eax], al
            0x004034cd      004765         add byte [edi + 0x65], al
            0x004034d0      7444           je 0x403516
            0x004034d2      43             inc ebx
            0x004034d3      0000           add byte [eax], al
            0x004034d5      004765         add byte [edi + 0x65], al
            0x004034d8      7444           je 0x40351e
            0x004034da      6c             insb byte es:[edi], dx
            0x004034db      6749           dec ecx
            0x004034dd      7465           je 0x403544
            0x004034df      6d             insd dword es:[edi], dx
            0x004034e0      0000           add byte [eax], al
            0x004034e2      0000           add byte [eax], al
            0x004034e4      47             inc edi
            0x004034e5      657444         je 0x40352c
            0x004034e8      6c             insb byte es:[edi], dx
            0x004034e9      6749           dec ecx
            0x004034eb      7465           je 0x403552
            0x004034ed      6d             insd dword es:[edi], dx
            0x004034ee      54             push esp
            0x004034ef      657874         js 0x403566
            0x004034f2      41             inc ecx
            0x004034f3      0000           add byte [eax], al
            0x004034f5      004765         add byte [edi + 0x65], al
            0x004034f8      744d           je 0x403547
            0x004034fa      65             invalid
            0x004034fb      73             invalid
            0x004034fc      7361           jae 0x40355f
            0x004034fe      676541         inc ecx
            0x00403501      0000           add byte [eax], al
            0x00403503      004765         add byte [edi + 0x65], al
            0x00403506      744c           je 0x403554
            0x00403508      6f             outsd dx, dword [esi]
            0x00403509      63616c         arpl word [ecx + 0x6c], sp
            0x0040350c      54             push esp
            0x0040350d      696d65000000.  imul ebp, dword [ebp + 0x65], 0
            0x00403514      4f             dec edi
            0x00403515      7065           jo 0x40357c
            0x00403517      6e             outsb dx, byte [esi]
            0x00403518      46             inc esi
            0x00403519      696c65000000.  imul ebp, dword [ebp], 0x47000000
            0x00403521      6c             insb byte es:[edi], dx
            0x00403522      6f             outsd dx, dword [esi]
            0x00403523      62616c         bound esp, qword [ecx + 0x6c]
            0x00403526      46             inc esi
            0x00403527      7265           jb 0x40358e
            0x00403529      650000         add byte gs:[eax], al
            0x0040352c      0000           add byte [eax], al
            0x0040352e      47             inc edi
            0x0040352f      6c             insb byte es:[edi], dx
            0x00403530      6f             outsd dx, dword [esi]
            0x00403531      62616c         bound esp, qword [ecx + 0x6c]
            0x00403534      41             inc ecx
            0x00403535      6c             insb byte es:[edi], dx
            0x00403536      6c             insb byte es:[edi], dx
            0x00403537      6f             outsd dx, dword [esi]
            0x00403538      6300           arpl word [eax], ax
            0x0040353a      0000           add byte [eax], al
            0x0040353c      6c             insb byte es:[edi], dx
            0x0040353d      7374           jae 0x4035b3
            0x0040353f      726c           jb 0x4035ad
            0x00403541      656e           outsb dx, byte gs:[esi]
            0x00403543      0000           add byte [eax], al
            0x00403545      00436c         add byte [ebx + 0x6c], al
            0x00403548      6f             outsd dx, dword [esi]
            0x00403549      7365           jae 0x4035b0
            0x0040354b      48             dec eax
            0x0040354c      61             popal
            0x0040354d      6e             outsb dx, byte [esi]
            0x0040354e      646c           insb byte es:[edi], dx
            0x00403550      650000         add byte gs:[eax], al
            0x00403553      005772         add byte [edi + 0x72], dl
            0x00403556      69746546696c.  imul esi, dword [ebp + 0x46], 0x656c69
            0x0040355e      0000           add byte [eax], al
            0x00403560      47             inc edi
            0x00403561      65744d         je 0x4035b1
            0x00403564      6f             outsd dx, dword [esi]
            0x00403565      64756c         jne 0x4035d4
            0x00403568      6548           dec eax
            0x0040356a      61             popal
            0x0040356b      6e             outsb dx, byte [esi]
            0x0040356c      646c           insb byte es:[edi], dx
            0x0040356e      6541           inc ecx
            0x00403570      0000           add byte [eax], al
            0x00403572      0000           add byte [eax], al
            0x00403574      52             push edx
            0x00403575      6561           popal
            0x00403577      6446           inc esi
            0x00403579      696c65000000.  imul ebp, dword [ebp], 0x45000000
            0x00403581      7869           js 0x4035ec
            0x00403583      7450           je 0x4035d5
            0x00403585      726f           jb 0x4035f6
            0x00403587      636573         arpl word [ebp + 0x73], sp
            0x0040358a      7300           jae 0x40358c
            0x0040358c      0000           add byte [eax], al
            0x0040358e      49             dec ecx
            0x0040358f      6e             outsb dx, byte [esi]
            0x00403590      6974436f6d6d.  imul esi, dword [ebx + eax*2 + 0x6f], 0x6e6f6d6d
            0x00403598      43             inc ebx
            0x00403599      6f             outsd dx, dword [esi]
            0x0040359a      6e             outsb dx, byte [esi]
            0x0040359b      7472           je 0x40360f
            0x0040359d      6f             outsd dx, dword [esi]
            0x0040359e      6c             insb byte es:[edi], dx
            0x0040359f      7300           jae 0x4035a1
            0x004035a1      0000           add byte [eax], al
            0x004035a3      004372         add byte [ebx + 0x72], al
            0x004035a6      6561           popal
            0x004035a8      7465           je 0x40360f
            0x004035aa      54             push esp
            0x004035ab      6f             outsd dx, dword [esi]
            0x004035ac      6f             outsd dx, dword [esi]
            0x004035ad      6c             insb byte es:[edi], dx
            0x004035ae      626172         bound esp, qword [ecx + 0x72]
            0x004035b1      45             inc ebp
            0x004035b2      7800           js 0x4035b4
            0x004035b4      0000           add byte [eax], al
            0x004035b6      43             inc ebx
            0x004035b7      7265           jb 0x40361e
            0x004035b9      61             popal
            0x004035ba      7465           je 0x403621
            0x004035bc      54             push esp
            0x004035bd      6f             outsd dx, dword [esi]
            0x004035be      6f             outsd dx, dword [esi]
            0x004035bf      6c             insb byte es:[edi], dx
            0x004035c0      626172         bound esp, qword [ecx + 0x72]
            0x004035c3      0000           add byte [eax], al
            0x004035c5      00546578       add byte [ebp + 0x78], dl
            0x004035c9      744f           je 0x40361a
            0x004035cb      7574           jne 0x403641
            0x004035cd      41             inc ecx
            0x004035ce      0000           add byte [eax], al
            0x004035d0      0000           add byte [eax], al
            0x004035d2      53             push ebx
            0x004035d3      7461           je 0x403636
            0x004035d5      7274           jb 0x40364b
            0x004035d7      50             push eax
            0x004035d8      61             popal
            0x004035d9      67650000       add byte gs:[bx + si], al
            0x004035dd      005374         add byte [ebx + 0x74], dl
            0x004035e0      61             popal
            0x004035e1      7274           jb 0x403657
            0x004035e3      44             inc esp
            0x004035e4      6f             outsd dx, dword [esi]
            0x004035e5      634100         arpl word [ecx], ax
            0x004035e8      0000           add byte [eax], al
            0x004035ea      47             inc edi
            0x004035eb      657454         je 0x403642
            0x004035ee      657874         js 0x403665
            0x004035f1      4d             dec ebp
            0x004035f2      657472         je 0x403667
            0x004035f5      696373410000.  imul esp, dword [ebx + 0x73], 0x41
            0x004035fc      47             inc edi
            0x004035fd      657453         je 0x403653
            0x00403600      746f           je 0x403671
            0x00403602      636b4f         arpl word [ebx + 0x4f], bp
            0x00403605      626a65         bound ebp, qword [edx + 0x65]
            0x00403608      63740000       arpl word [eax + eax], si
            0x0040360c      0000           add byte [eax], al
            0x0040360e      45             inc ebp
            0x0040360f      6e             outsb dx, byte [esi]
            0x00403610      6450           push eax
            0x00403612      61             popal
            0x00403613      67650000       add byte gs:[bx + si], al
            0x00403617      00456e         add byte [ebp + 0x6e], al
            0x0040361a      6444           inc esp
            0x0040361c      6f             outsd dx, dword [esi]
            0x0040361d      6300           arpl word [eax], ax
            0x0040361f      0000           add byte [eax], al
            0x00403621      0044656c       add byte [ebp + 0x6c], al
            0x00403625      657465         je 0x40368d
            0x00403628      4f             dec edi
            0x00403629      626a65         bound ebp, qword [edx + 0x65]
            0x0040362c      63740000       arpl word [eax + eax], si
            0x00403630      0000           add byte [eax], al
            0x00403632      44             inc esp
            0x00403633      656c           insb byte es:[edi], dx
            0x00403635      657465         je 0x40369d
            0x00403638      44             inc esp
            0x00403639      43             inc ebx
            0x0040363a      0000           add byte [eax], al
            0x0040363c      0000           add byte [eax], al
            0x0040363e      47             inc edi
            0x0040363f      657453         je 0x403695
            0x00403642      61             popal
            0x00403643      7665           jbe 0x4036aa
            0x00403645      46             inc esi
            0x00403646      696c654e616d.  imul ebp, dword [ebp + 0x4e], 0x41656d61
            0x0040364e      0000           add byte [eax], al
            0x00403650      0000           add byte [eax], al
            0x00403652      47             inc edi
            0x00403653      65744f         je 0x4036a5
            0x00403656      7065           jo 0x4036bd
            0x00403658      6e             outsb dx, byte [esi]
            0x00403659      46             inc esi
            0x0040365a      696c654e616d.  imul ebp, dword [ebp + 0x4e], 0x41656d61
            0x00403662      0000           add byte [eax], al
            0x00403664      0000           add byte [eax], al
            0x00403666      50             push eax
            0x00403667      7269           jb 0x4036d2
            0x00403669      6e             outsb dx, byte [esi]
            0x0040366a      7444           je 0x4036b0
            0x0040366c      6c             insb byte es:[edi], dx
            0x0040366d      6741           inc ecx
            0x0040366f      0000           add byte [eax], al
            0x00403671      0000           add byte [eax], al
            0x00403673      0000           add byte [eax], al
            0x00403675      0000           add byte [eax], al
            0x00403677      0000           add byte [eax], al
            0x00403679      0000           add byte [eax], al
            0x0040367b      0000           add byte [eax], al
            0x0040367d      0000           add byte [eax], al
            0x0040367f      0000           add byte [eax], al
            0x00403681      0000           add byte [eax], al
            0x00403683      0000           add byte [eax], al
            0x00403685      0000           add byte [eax], al
            0x00403687      0000           add byte [eax], al
            0x00403689      0000           add byte [eax], al
            0x0040368b      0000           add byte [eax], al
            0x0040368d      0000           add byte [eax], al
            0x0040368f      0000           add byte [eax], al
            0x00403691      0000           add byte [eax], al
            0x00403693      0000           add byte [eax], al
            0x00403695      0000           add byte [eax], al
            0x00403697      0000           add byte [eax], al
            0x00403699      0000           add byte [eax], al
            0x0040369b      0000           add byte [eax], al
            0x0040369d      0000           add byte [eax], al
            0x0040369f      0000           add byte [eax], al
            0x004036a1      0000           add byte [eax], al
            0x004036a3      0000           add byte [eax], al
            0x004036a5      0000           add byte [eax], al
            0x004036a7      0000           add byte [eax], al
            0x004036a9      0000           add byte [eax], al
            0x004036ab      0000           add byte [eax], al
            0x004036ad      0000           add byte [eax], al
            0x004036af      0000           add byte [eax], al
            0x004036b1      0000           add byte [eax], al
            0x004036b3      0000           add byte [eax], al
            0x004036b5      0000           add byte [eax], al
            0x004036b7      0000           add byte [eax], al
            0x004036b9      0000           add byte [eax], al
            0x004036bb      0000           add byte [eax], al
            0x004036bd      0000           add byte [eax], al
            0x004036bf      0000           add byte [eax], al
            0x004036c1      0000           add byte [eax], al
            0x004036c3      0000           add byte [eax], al
            0x004036c5      0000           add byte [eax], al
            0x004036c7      0000           add byte [eax], al
            0x004036c9      0000           add byte [eax], al
            0x004036cb      0000           add byte [eax], al
            0x004036cd      0000           add byte [eax], al
            0x004036cf      0000           add byte [eax], al
            0x004036d1      0000           add byte [eax], al
            0x004036d3      0000           add byte [eax], al
            0x004036d5      0000           add byte [eax], al
            0x004036d7      0000           add byte [eax], al
            0x004036d9      0000           add byte [eax], al
            0x004036db      0000           add byte [eax], al
            0x004036dd      0000           add byte [eax], al
            0x004036df      0000           add byte [eax], al
            0x004036e1      0000           add byte [eax], al
            0x004036e3      0000           add byte [eax], al
            0x004036e5      0000           add byte [eax], al
            0x004036e7      0000           add byte [eax], al
            0x004036e9      0000           add byte [eax], al
            0x004036eb      0000           add byte [eax], al
            0x004036ed      0000           add byte [eax], al
            0x004036ef      0000           add byte [eax], al
            0x004036f1      0000           add byte [eax], al
            0x004036f3      0000           add byte [eax], al
            0x004036f5      0000           add byte [eax], al
            0x004036f7      0000           add byte [eax], al
            0x004036f9      0000           add byte [eax], al
            0x004036fb      00             invalid
            0x004036fc      0000           add byte [eax], al
            0x004036fe      0000           add byte [eax], al
            0x00403700      0000           add byte [eax], al
            0x00403702      0000           add byte [eax], al
            0x00403704      0000           add byte [eax], al
            0x00403706      0000           add byte [eax], al
            0x00403708      0000           add byte [eax], al
            0x0040370a      0000           add byte [eax], al
            0x0040370c      0000           add byte [eax], al
            0x0040370e      0000           add byte [eax], al
            0x00403710      0000           add byte [eax], al
            0x00403712      0000           add byte [eax], al
            0x00403714      0000           add byte [eax], al
            0x00403716      0000           add byte [eax], al
            0x00403718      0000           add byte [eax], al
            0x0040371a      0000           add byte [eax], al
            0x0040371c      0000           add byte [eax], al
            0x0040371e      0000           add byte [eax], al
            0x00403720      0000           add byte [eax], al
            0x00403722      0000           add byte [eax], al
            0x00403724      0000           add byte [eax], al
            0x00403726      0000           add byte [eax], al
            0x00403728      0000           add byte [eax], al
            0x0040372a      0000           add byte [eax], al
            0x0040372c      0000           add byte [eax], al
            0x0040372e      0000           add byte [eax], al
            0x00403730      0000           add byte [eax], al
            0x00403732      0000           add byte [eax], al
            0x00403734      0000           add byte [eax], al
            0x00403736      0000           add byte [eax], al
            0x00403738      0000           add byte [eax], al
            0x0040373a      0000           add byte [eax], al
            0x0040373c      0000           add byte [eax], al
            0x0040373e      0000           add byte [eax], al
            0x00403740      0000           add byte [eax], al
            0x00403742      0000           add byte [eax], al
            0x00403744      0000           add byte [eax], al
            0x00403746      0000           add byte [eax], al
            0x00403748      0000           add byte [eax], al
            0x0040374a      0000           add byte [eax], al
            0x0040374c      0000           add byte [eax], al
            0x0040374e      0000           add byte [eax], al
            0x00403750      0000           add byte [eax], al
            0x00403752      0000           add byte [eax], al
            0x00403754      0000           add byte [eax], al
            0x00403756      0000           add byte [eax], al
            0x00403758      0000           add byte [eax], al
            0x0040375a      0000           add byte [eax], al
            0x0040375c      0000           add byte [eax], al
            0x0040375e      0000           add byte [eax], al
            0x00403760      0000           add byte [eax], al
            0x00403762      0000           add byte [eax], al
            0x00403764      0000           add byte [eax], al
            0x00403766      0000           add byte [eax], al
            0x00403768      0000           add byte [eax], al
            0x0040376a      0000           add byte [eax], al
            0x0040376c      0000           add byte [eax], al
            0x0040376e      0000           add byte [eax], al
            0x00403770      0000           add byte [eax], al
            0x00403772      0000           add byte [eax], al
            0x00403774      0000           add byte [eax], al
            0x00403776      0000           add byte [eax], al
            0x00403778      0000           add byte [eax], al
            0x0040377a      0000           add byte [eax], al
            0x0040377c      0000           add byte [eax], al
            0x0040377e      0000           add byte [eax], al
            0x00403780      0000           add byte [eax], al
            0x00403782      0000           add byte [eax], al
            0x00403784      0000           add byte [eax], al
            0x00403786      0000           add byte [eax], al
            0x00403788      0000           add byte [eax], al
            0x0040378a      0000           add byte [eax], al
            0x0040378c      0000           add byte [eax], al
            0x0040378e      0000           add byte [eax], al
            0x00403790      0000           add byte [eax], al
            0x00403792      0000           add byte [eax], al
            0x00403794      0000           add byte [eax], al
            0x00403796      0000           add byte [eax], al
            0x00403798      0000           add byte [eax], al
            0x0040379a      0000           add byte [eax], al
            0x0040379c      0000           add byte [eax], al
            0x0040379e      0000           add byte [eax], al
            0x004037a0      0000           add byte [eax], al
            0x004037a2      0000           add byte [eax], al
            0x004037a4      0000           add byte [eax], al
            0x004037a6      0000           add byte [eax], al
            0x004037a8      0000           add byte [eax], al
            0x004037aa      0000           add byte [eax], al
            0x004037ac      0000           add byte [eax], al
            0x004037ae      0000           add byte [eax], al
            0x004037b0      0000           add byte [eax], al
            0x004037b2      0000           add byte [eax], al
            0x004037b4      0000           add byte [eax], al
            0x004037b6      0000           add byte [eax], al
            0x004037b8      0000           add byte [eax], al
            0x004037ba      0000           add byte [eax], al
            0x004037bc      0000           add byte [eax], al
            0x004037be      0000           add byte [eax], al
            0x004037c0      0000           add byte [eax], al
            0x004037c2      0000           add byte [eax], al
            0x004037c4      0000           add byte [eax], al
            0x004037c6      0000           add byte [eax], al
            0x004037c8      0000           add byte [eax], al
            0x004037ca      0000           add byte [eax], al
            0x004037cc      0000           add byte [eax], al
            0x004037ce      0000           add byte [eax], al
            0x004037d0      0000           add byte [eax], al
            0x004037d2      0000           add byte [eax], al
            0x004037d4      0000           add byte [eax], al
            0x004037d6      0000           add byte [eax], al
            0x004037d8      0000           add byte [eax], al
            0x004037da      0000           add byte [eax], al
            0x004037dc      0000           add byte [eax], al
            0x004037de      0000           add byte [eax], al
            0x004037e0      0000           add byte [eax], al
            0x004037e2      0000           add byte [eax], al
            0x004037e4      0000           add byte [eax], al
            0x004037e6      0000           add byte [eax], al
            0x004037e8      0000           add byte [eax], al
            0x004037ea      0000           add byte [eax], al
            0x004037ec      0000           add byte [eax], al
            0x004037ee      0000           add byte [eax], al
            0x004037f0      0000           add byte [eax], al
            0x004037f2      0000           add byte [eax], al
            0x004037f4      0000           add byte [eax], al
            0x004037f6      0000           add byte [eax], al
            0x004037f8      0000           add byte [eax], al
            0x004037fa      0000           add byte [eax], al
            0x004037fc      0000           add byte [eax], al
            0x004037fe      0000           add byte [eax], al
            0x00403800      0000           add byte [eax], al
            0x00403802      0000           add byte [eax], al
            0x00403804      0000           add byte [eax], al
            0x00403806      0000           add byte [eax], al
            0x00403808      0000           add byte [eax], al
            0x0040380a      0000           add byte [eax], al
            0x0040380c      0000           add byte [eax], al
            0x0040380e      0000           add byte [eax], al
            0x00403810      0000           add byte [eax], al
            0x00403812      0000           add byte [eax], al
            0x00403814      0000           add byte [eax], al
            0x00403816      0000           add byte [eax], al
            0x00403818      0000           add byte [eax], al
            0x0040381a      0000           add byte [eax], al
            0x0040381c      0000           add byte [eax], al
            0x0040381e      0000           add byte [eax], al
            0x00403820      0000           add byte [eax], al
            0x00403822      0000           add byte [eax], al
            0x00403824      0000           add byte [eax], al
            0x00403826      0000           add byte [eax], al
            0x00403828      0000           add byte [eax], al
            0x0040382a      0000           add byte [eax], al
            0x0040382c      0000           add byte [eax], al
            0x0040382e      0000           add byte [eax], al
            0x00403830      0000           add byte [eax], al
            0x00403832      0000           add byte [eax], al
            0x00403834      0000           add byte [eax], al
            0x00403836      0000           add byte [eax], al
            0x00403838      0000           add byte [eax], al
            0x0040383a      0000           add byte [eax], al
            0x0040383c      0000           add byte [eax], al
            0x0040383e      0000           add byte [eax], al
            0x00403840      0000           add byte [eax], al
            0x00403842      0000           add byte [eax], al
            0x00403844      0000           add byte [eax], al
            0x00403846      0000           add byte [eax], al
            0x00403848      0000           add byte [eax], al
            0x0040384a      0000           add byte [eax], al
            0x0040384c      0000           add byte [eax], al
            0x0040384e      0000           add byte [eax], al
            0x00403850      0000           add byte [eax], al
            0x00403852      0000           add byte [eax], al
            0x00403854      0000           add byte [eax], al
            0x00403856      0000           add byte [eax], al
            0x00403858      0000           add byte [eax], al
            0x0040385a      0000           add byte [eax], al
            0x0040385c      0000           add byte [eax], al
            0x0040385e      0000           add byte [eax], al
            0x00403860      0000           add byte [eax], al
            0x00403862      0000           add byte [eax], al
            0x00403864      0000           add byte [eax], al
            0x00403866      0000           add byte [eax], al
            0x00403868      0000           add byte [eax], al
            0x0040386a      0000           add byte [eax], al
            0x0040386c      0000           add byte [eax], al
            0x0040386e      0000           add byte [eax], al
            0x00403870      0000           add byte [eax], al
            0x00403872      0000           add byte [eax], al
            0x00403874      0000           add byte [eax], al
            0x00403876      0000           add byte [eax], al
            0x00403878      0000           add byte [eax], al
            0x0040387a      0000           add byte [eax], al
            0x0040387c      0000           add byte [eax], al
            0x0040387e      0000           add byte [eax], al
            0x00403880      0000           add byte [eax], al
            0x00403882      0000           add byte [eax], al
            0x00403884      0000           add byte [eax], al
            0x00403886      0000           add byte [eax], al
            0x00403888      0000           add byte [eax], al
            0x0040388a      0000           add byte [eax], al
            0x0040388c      0000           add byte [eax], al
            0x0040388e      0000           add byte [eax], al
            0x00403890      0000           add byte [eax], al
            0x00403892      0000           add byte [eax], al
            0x00403894      0000           add byte [eax], al
            0x00403896      0000           add byte [eax], al
            0x00403898      0000           add byte [eax], al
            0x0040389a      0000           add byte [eax], al
            0x0040389c      0000           add byte [eax], al
            0x0040389e      0000           add byte [eax], al
            0x004038a0      0000           add byte [eax], al
            0x004038a2      0000           add byte [eax], al
            0x004038a4      0000           add byte [eax], al
            0x004038a6      0000           add byte [eax], al
            0x004038a8      0000           add byte [eax], al
            0x004038aa      0000           add byte [eax], al
            0x004038ac      0000           add byte [eax], al
            0x004038ae      0000           add byte [eax], al
            0x004038b0      0000           add byte [eax], al
            0x004038b2      0000           add byte [eax], al
            0x004038b4      0000           add byte [eax], al
            0x004038b6      0000           add byte [eax], al
            0x004038b8      0000           add byte [eax], al
            0x004038ba      0000           add byte [eax], al
            0x004038bc      0000           add byte [eax], al
            0x004038be      0000           add byte [eax], al
            0x004038c0      0000           add byte [eax], al
            0x004038c2      0000           add byte [eax], al
            0x004038c4      0000           add byte [eax], al
            0x004038c6      0000           add byte [eax], al
            0x004038c8      0000           add byte [eax], al
            0x004038ca      0000           add byte [eax], al
            0x004038cc      0000           add byte [eax], al
            0x004038ce      0000           add byte [eax], al
            0x004038d0      0000           add byte [eax], al
            0x004038d2      0000           add byte [eax], al
            0x004038d4      0000           add byte [eax], al
            0x004038d6      0000           add byte [eax], al
            0x004038d8      0000           add byte [eax], al
            0x004038da      0000           add byte [eax], al
            0x004038dc      0000           add byte [eax], al
            0x004038de      0000           add byte [eax], al
            0x004038e0      0000           add byte [eax], al
            0x004038e2      0000           add byte [eax], al
            0x004038e4      0000           add byte [eax], al
            0x004038e6      0000           add byte [eax], al
            0x004038e8      0000           add byte [eax], al
            0x004038ea      0000           add byte [eax], al
            0x004038ec      0000           add byte [eax], al
            0x004038ee      0000           add byte [eax], al
            0x004038f0      0000           add byte [eax], al
            0x004038f2      0000           add byte [eax], al
            0x004038f4      0000           add byte [eax], al
            0x004038f6      0000           add byte [eax], al
            0x004038f8      0000           add byte [eax], al
            0x004038fa      0000           add byte [eax], al
            0x004038fc      0000           add byte [eax], al
            0x004038fe      0000           add byte [eax], al
            0x00403900      0000           add byte [eax], al
            0x00403902      0000           add byte [eax], al
            0x00403904      0000           add byte [eax], al
            0x00403906      0000           add byte [eax], al
            0x00403908      0000           add byte [eax], al
            0x0040390a      0000           add byte [eax], al
            0x0040390c      0000           add byte [eax], al
            0x0040390e      0000           add byte [eax], al
            0x00403910      0000           add byte [eax], al
            0x00403912      0000           add byte [eax], al
            0x00403914      0000           add byte [eax], al
            0x00403916      0000           add byte [eax], al
            0x00403918      0000           add byte [eax], al
            0x0040391a      0000           add byte [eax], al
            0x0040391c      0000           add byte [eax], al
            0x0040391e      0000           add byte [eax], al
            0x00403920      0000           add byte [eax], al
            0x00403922      0000           add byte [eax], al
            0x00403924      0000           add byte [eax], al
            0x00403926      0000           add byte [eax], al
            0x00403928      0000           add byte [eax], al
            0x0040392a      0000           add byte [eax], al
            0x0040392c      0000           add byte [eax], al
            0x0040392e      0000           add byte [eax], al
            0x00403930      0000           add byte [eax], al
            0x00403932      0000           add byte [eax], al
            0x00403934      0000           add byte [eax], al
            0x00403936      0000           add byte [eax], al
            0x00403938      0000           add byte [eax], al
            0x0040393a      0000           add byte [eax], al
            0x0040393c      0000           add byte [eax], al
            0x0040393e      0000           add byte [eax], al
            0x00403940      0000           add byte [eax], al
            0x00403942      0000           add byte [eax], al
            0x00403944      0000           add byte [eax], al
            0x00403946      0000           add byte [eax], al
            0x00403948      0000           add byte [eax], al
            0x0040394a      0000           add byte [eax], al
            0x0040394c      0000           add byte [eax], al
            0x0040394e      0000           add byte [eax], al
            0x00403950      0000           add byte [eax], al
            0x00403952      0000           add byte [eax], al
            0x00403954      0000           add byte [eax], al
            0x00403956      0000           add byte [eax], al
            0x00403958      0000           add byte [eax], al
            0x0040395a      0000           add byte [eax], al
            0x0040395c      0000           add byte [eax], al
            0x0040395e      0000           add byte [eax], al
            0x00403960      0000           add byte [eax], al
            0x00403962      0000           add byte [eax], al
            0x00403964      0000           add byte [eax], al
            0x00403966      0000           add byte [eax], al
            0x00403968      0000           add byte [eax], al
            0x0040396a      0000           add byte [eax], al
            0x0040396c      0000           add byte [eax], al
            0x0040396e      0000           add byte [eax], al
            0x00403970      0000           add byte [eax], al
            0x00403972      0000           add byte [eax], al
            0x00403974      0000           add byte [eax], al
            0x00403976      0000           add byte [eax], al
            0x00403978      0000           add byte [eax], al
            0x0040397a      0000           add byte [eax], al
            0x0040397c      0000           add byte [eax], al
            0x0040397e      0000           add byte [eax], al
            0x00403980      0000           add byte [eax], al
            0x00403982      0000           add byte [eax], al
            0x00403984      0000           add byte [eax], al
            0x00403986      0000           add byte [eax], al
            0x00403988      0000           add byte [eax], al
            0x0040398a      0000           add byte [eax], al
            0x0040398c      0000           add byte [eax], al
            0x0040398e      0000           add byte [eax], al
            0x00403990      0000           add byte [eax], al
            0x00403992      0000           add byte [eax], al
            0x00403994      0000           add byte [eax], al
            0x00403996      0000           add byte [eax], al
            0x00403998      0000           add byte [eax], al
            0x0040399a      0000           add byte [eax], al
            0x0040399c      0000           add byte [eax], al
            0x0040399e      0000           add byte [eax], al
            0x004039a0      0000           add byte [eax], al
            0x004039a2      0000           add byte [eax], al
            0x004039a4      0000           add byte [eax], al
            0x004039a6      0000           add byte [eax], al
            0x004039a8      0000           add byte [eax], al
            0x004039aa      0000           add byte [eax], al
            0x004039ac      0000           add byte [eax], al
            0x004039ae      0000           add byte [eax], al
            0x004039b0      0000           add byte [eax], al
            0x004039b2      0000           add byte [eax], al
            0x004039b4      0000           add byte [eax], al
            0x004039b6      0000           add byte [eax], al
            0x004039b8      0000           add byte [eax], al
            0x004039ba      0000           add byte [eax], al
            0x004039bc      0000           add byte [eax], al
            0x004039be      0000           add byte [eax], al
            0x004039c0      0000           add byte [eax], al
            0x004039c2      0000           add byte [eax], al
            0x004039c4      0000           add byte [eax], al
            0x004039c6      0000           add byte [eax], al
            0x004039c8      0000           add byte [eax], al
            0x004039ca      0000           add byte [eax], al
            0x004039cc      0000           add byte [eax], al
            0x004039ce      0000           add byte [eax], al
            0x004039d0      0000           add byte [eax], al
            0x004039d2      0000           add byte [eax], al
            0x004039d4      0000           add byte [eax], al
            0x004039d6      0000           add byte [eax], al
            0x004039d8      0000           add byte [eax], al
            0x004039da      0000           add byte [eax], al
            0x004039dc      0000           add byte [eax], al
            0x004039de      0000           add byte [eax], al
            0x004039e0      0000           add byte [eax], al
            0x004039e2      0000           add byte [eax], al
            0x004039e4      0000           add byte [eax], al
            0x004039e6      0000           add byte [eax], al
            0x004039e8      0000           add byte [eax], al
            0x004039ea      0000           add byte [eax], al
            0x004039ec      0000           add byte [eax], al
            0x004039ee      0000           add byte [eax], al
            0x004039f0      0000           add byte [eax], al
            0x004039f2      0000           add byte [eax], al
            0x004039f4      0000           add byte [eax], al
            0x004039f6      0000           add byte [eax], al
            0x004039f8      0000           add byte [eax], al
            0x004039fa      0000           add byte [eax], al
            0x004039fc      0000           add byte [eax], al
            0x004039fe      0000           add byte [eax], al
            0x00403a00      0000           add byte [eax], al
            0x00403a02      0000           add byte [eax], al
            0x00403a04      0000           add byte [eax], al
            0x00403a06      0000           add byte [eax], al
            0x00403a08      0000           add byte [eax], al
            0x00403a0a      0000           add byte [eax], al
            0x00403a0c      0000           add byte [eax], al
            0x00403a0e      0000           add byte [eax], al
            0x00403a10      0000           add byte [eax], al
            0x00403a12      0000           add byte [eax], al
            0x00403a14      0000           add byte [eax], al
            0x00403a16      0000           add byte [eax], al
            0x00403a18      0000           add byte [eax], al
            0x00403a1a      0000           add byte [eax], al
            0x00403a1c      0000           add byte [eax], al
            0x00403a1e      0000           add byte [eax], al
            0x00403a20      0000           add byte [eax], al
            0x00403a22      0000           add byte [eax], al
            0x00403a24      0000           add byte [eax], al
            0x00403a26      0000           add byte [eax], al
            0x00403a28      0000           add byte [eax], al
            0x00403a2a      0000           add byte [eax], al
            0x00403a2c      0000           add byte [eax], al
            0x00403a2e      0000           add byte [eax], al
            0x00403a30      0000           add byte [eax], al
            0x00403a32      0000           add byte [eax], al
            0x00403a34      0000           add byte [eax], al
            0x00403a36      0000           add byte [eax], al
            0x00403a38      0000           add byte [eax], al
            0x00403a3a      0000           add byte [eax], al
            0x00403a3c      0000           add byte [eax], al
            0x00403a3e      0000           add byte [eax], al
            0x00403a40      0000           add byte [eax], al
            0x00403a42      0000           add byte [eax], al
            0x00403a44      0000           add byte [eax], al
            0x00403a46      0000           add byte [eax], al
            0x00403a48      0000           add byte [eax], al
            0x00403a4a      0000           add byte [eax], al
            0x00403a4c      0000           add byte [eax], al
            0x00403a4e      0000           add byte [eax], al
            0x00403a50      0000           add byte [eax], al
            0x00403a52      0000           add byte [eax], al
            0x00403a54      0000           add byte [eax], al
            0x00403a56      0000           add byte [eax], al
            0x00403a58      0000           add byte [eax], al
            0x00403a5a      0000           add byte [eax], al
            0x00403a5c      0000           add byte [eax], al
            0x00403a5e      0000           add byte [eax], al
            0x00403a60      0000           add byte [eax], al
            0x00403a62      0000           add byte [eax], al
            0x00403a64      0000           add byte [eax], al
            0x00403a66      0000           add byte [eax], al
            0x00403a68      0000           add byte [eax], al
            0x00403a6a      0000           add byte [eax], al
            0x00403a6c      0000           add byte [eax], al
            0x00403a6e      0000           add byte [eax], al
            0x00403a70      0000           add byte [eax], al
            0x00403a72      0000           add byte [eax], al
            0x00403a74      0000           add byte [eax], al
            0x00403a76      0000           add byte [eax], al
            0x00403a78      0000           add byte [eax], al
            0x00403a7a      0000           add byte [eax], al
            0x00403a7c      0000           add byte [eax], al
            0x00403a7e      0000           add byte [eax], al
            0x00403a80      0000           add byte [eax], al
            0x00403a82      0000           add byte [eax], al
            0x00403a84      0000           add byte [eax], al
            0x00403a86      0000           add byte [eax], al
            0x00403a88      0000           add byte [eax], al
            0x00403a8a      0000           add byte [eax], al
            0x00403a8c      0000           add byte [eax], al
            0x00403a8e      0000           add byte [eax], al
            0x00403a90      0000           add byte [eax], al
            0x00403a92      0000           add byte [eax], al
            0x00403a94      0000           add byte [eax], al
            0x00403a96      0000           add byte [eax], al
            0x00403a98      0000           add byte [eax], al
            0x00403a9a      0000           add byte [eax], al
            0x00403a9c      0000           add byte [eax], al
            0x00403a9e      0000           add byte [eax], al
            0x00403aa0      0000           add byte [eax], al
            0x00403aa2      0000           add byte [eax], al
            0x00403aa4      0000           add byte [eax], al
            0x00403aa6      0000           add byte [eax], al
            0x00403aa8      0000           add byte [eax], al
            0x00403aaa      0000           add byte [eax], al
            0x00403aac      0000           add byte [eax], al
            0x00403aae      0000           add byte [eax], al
            0x00403ab0      0000           add byte [eax], al
            0x00403ab2      0000           add byte [eax], al
            0x00403ab4      0000           add byte [eax], al
            0x00403ab6      0000           add byte [eax], al
            0x00403ab8      0000           add byte [eax], al
            0x00403aba      0000           add byte [eax], al
            0x00403abc      0000           add byte [eax], al
            0x00403abe      0000           add byte [eax], al
            0x00403ac0      0000           add byte [eax], al
            0x00403ac2      0000           add byte [eax], al
            0x00403ac4      0000           add byte [eax], al
            0x00403ac6      0000           add byte [eax], al
            0x00403ac8      0000           add byte [eax], al
            0x00403aca      0000           add byte [eax], al
            0x00403acc      0000           add byte [eax], al
            0x00403ace      0000           add byte [eax], al
            0x00403ad0      0000           add byte [eax], al
            0x00403ad2      0000           add byte [eax], al
            0x00403ad4      0000           add byte [eax], al
            0x00403ad6      0000           add byte [eax], al
            0x00403ad8      0000           add byte [eax], al
            0x00403ada      0000           add byte [eax], al
            0x00403adc      0000           add byte [eax], al
            0x00403ade      0000           add byte [eax], al
            0x00403ae0      0000           add byte [eax], al
            0x00403ae2      0000           add byte [eax], al
            0x00403ae4      0000           add byte [eax], al
            0x00403ae6      0000           add byte [eax], al
            0x00403ae8      0000           add byte [eax], al
            0x00403aea      0000           add byte [eax], al
            0x00403aec      0000           add byte [eax], al
            0x00403aee      0000           add byte [eax], al
            0x00403af0      0000           add byte [eax], al
            0x00403af2      0000           add byte [eax], al
            0x00403af4      0000           add byte [eax], al
            0x00403af6      0000           add byte [eax], al
            0x00403af8      0000           add byte [eax], al
            0x00403afa      0000           add byte [eax], al
            0x00403afc      0000           add byte [eax], al
            0x00403afe      0000           add byte [eax], al
            0x00403b00      0000           add byte [eax], al
            0x00403b02      0000           add byte [eax], al
            0x00403b04      0000           add byte [eax], al
            0x00403b06      0000           add byte [eax], al
            0x00403b08      0000           add byte [eax], al
            0x00403b0a      0000           add byte [eax], al
            0x00403b0c      0000           add byte [eax], al
            0x00403b0e      0000           add byte [eax], al
            0x00403b10      0000           add byte [eax], al
            0x00403b12      0000           add byte [eax], al
            0x00403b14      0000           add byte [eax], al
            0x00403b16      0000           add byte [eax], al
            0x00403b18      0000           add byte [eax], al
            0x00403b1a      0000           add byte [eax], al
            0x00403b1c      0000           add byte [eax], al
            0x00403b1e      0000           add byte [eax], al
            0x00403b20      0000           add byte [eax], al
            0x00403b22      0000           add byte [eax], al
            0x00403b24      0000           add byte [eax], al
            0x00403b26      0000           add byte [eax], al
            0x00403b28      0000           add byte [eax], al
            0x00403b2a      0000           add byte [eax], al
            0x00403b2c      0000           add byte [eax], al
            0x00403b2e      0000           add byte [eax], al
            0x00403b30      0000           add byte [eax], al
            0x00403b32      0000           add byte [eax], al
            0x00403b34      0000           add byte [eax], al
            0x00403b36      0000           add byte [eax], al
            0x00403b38      0000           add byte [eax], al
            0x00403b3a      0000           add byte [eax], al
            0x00403b3c      0000           add byte [eax], al
            0x00403b3e      0000           add byte [eax], al
            0x00403b40      0000           add byte [eax], al
            0x00403b42      0000           add byte [eax], al
            0x00403b44      0000           add byte [eax], al
            0x00403b46      0000           add byte [eax], al
            0x00403b48      0000           add byte [eax], al
            0x00403b4a      0000           add byte [eax], al
            0x00403b4c      0000           add byte [eax], al
            0x00403b4e      0000           add byte [eax], al
            0x00403b50      0000           add byte [eax], al
            0x00403b52      0000           add byte [eax], al
            0x00403b54      0000           add byte [eax], al
            0x00403b56      0000           add byte [eax], al
            0x00403b58      0000           add byte [eax], al
            0x00403b5a      0000           add byte [eax], al
            0x00403b5c      0000           add byte [eax], al
            0x00403b5e      0000           add byte [eax], al
            0x00403b60      0000           add byte [eax], al
            0x00403b62      0000           add byte [eax], al
            0x00403b64      0000           add byte [eax], al
            0x00403b66      0000           add byte [eax], al
            0x00403b68      0000           add byte [eax], al
            0x00403b6a      0000           add byte [eax], al
            0x00403b6c      0000           add byte [eax], al
            0x00403b6e      0000           add byte [eax], al
            0x00403b70      0000           add byte [eax], al
            0x00403b72      0000           add byte [eax], al
            0x00403b74      0000           add byte [eax], al
            0x00403b76      0000           add byte [eax], al
            0x00403b78      0000           add byte [eax], al
            0x00403b7a      0000           add byte [eax], al
            0x00403b7c      0000           add byte [eax], al
            0x00403b7e      0000           add byte [eax], al
            0x00403b80      0000           add byte [eax], al
            0x00403b82      0000           add byte [eax], al
            0x00403b84      0000           add byte [eax], al
            0x00403b86      0000           add byte [eax], al
            0x00403b88      0000           add byte [eax], al
            0x00403b8a      0000           add byte [eax], al
            0x00403b8c      0000           add byte [eax], al
            0x00403b8e      0000           add byte [eax], al
            0x00403b90      0000           add byte [eax], al
            0x00403b92      0000           add byte [eax], al
            0x00403b94      0000           add byte [eax], al
            0x00403b96      0000           add byte [eax], al
            0x00403b98      0000           add byte [eax], al
            0x00403b9a      0000           add byte [eax], al
            0x00403b9c      0000           add byte [eax], al
            0x00403b9e      0000           add byte [eax], al
            0x00403ba0      0000           add byte [eax], al
            0x00403ba2      0000           add byte [eax], al
            0x00403ba4      0000           add byte [eax], al
            0x00403ba6      0000           add byte [eax], al
            0x00403ba8      0000           add byte [eax], al
            0x00403baa      0000           add byte [eax], al
            0x00403bac      0000           add byte [eax], al
            0x00403bae      0000           add byte [eax], al
            0x00403bb0      0000           add byte [eax], al
            0x00403bb2      0000           add byte [eax], al
            0x00403bb4      0000           add byte [eax], al
            0x00403bb6      0000           add byte [eax], al
            0x00403bb8      0000           add byte [eax], al
            0x00403bba      0000           add byte [eax], al
            0x00403bbc      0000           add byte [eax], al
            0x00403bbe      0000           add byte [eax], al
            0x00403bc0      0000           add byte [eax], al
            0x00403bc2      0000           add byte [eax], al
            0x00403bc4      0000           add byte [eax], al
            0x00403bc6      0000           add byte [eax], al
            0x00403bc8      0000           add byte [eax], al
            0x00403bca      0000           add byte [eax], al
            0x00403bcc      0000           add byte [eax], al
            0x00403bce      0000           add byte [eax], al
            0x00403bd0      0000           add byte [eax], al
            0x00403bd2      0000           add byte [eax], al
            0x00403bd4      0000           add byte [eax], al
            0x00403bd6      0000           add byte [eax], al
            0x00403bd8      0000           add byte [eax], al
            0x00403bda      0000           add byte [eax], al
            0x00403bdc      0000           add byte [eax], al
            0x00403bde      0000           add byte [eax], al
            0x00403be0      0000           add byte [eax], al
            0x00403be2      0000           add byte [eax], al
            0x00403be4      0000           add byte [eax], al
            0x00403be6      0000           add byte [eax], al
            0x00403be8      0000           add byte [eax], al
            0x00403bea      0000           add byte [eax], al
            0x00403bec      0000           add byte [eax], al
            0x00403bee      0000           add byte [eax], al
            0x00403bf0      0000           add byte [eax], al
            0x00403bf2      0000           add byte [eax], al
            0x00403bf4      0000           add byte [eax], al
            0x00403bf6      0000           add byte [eax], al
            0x00403bf8      0000           add byte [eax], al
            0x00403bfa      0000           add byte [eax], al
            0x00403bfc      0000           add byte [eax], al
            0x00403bfe      0000           add byte [eax], al
            0x00403c00      0000           add byte [eax], al
            0x00403c02      0000           add byte [eax], al
            0x00403c04      0000           add byte [eax], al
            0x00403c06      0000           add byte [eax], al
            0x00403c08      0000           add byte [eax], al
            0x00403c0a      0000           add byte [eax], al
            0x00403c0c      0000           add byte [eax], al
            0x00403c0e      0000           add byte [eax], al
            0x00403c10      0000           add byte [eax], al
            0x00403c12      0000           add byte [eax], al
            0x00403c14      0000           add byte [eax], al
            0x00403c16      0000           add byte [eax], al
            0x00403c18      0000           add byte [eax], al
            0x00403c1a      0000           add byte [eax], al
            0x00403c1c      0000           add byte [eax], al
            0x00403c1e      0000           add byte [eax], al
            0x00403c20      0000           add byte [eax], al
            0x00403c22      0000           add byte [eax], al
            0x00403c24      0000           add byte [eax], al
            0x00403c26      0000           add byte [eax], al
            0x00403c28      0000           add byte [eax], al
            0x00403c2a      0000           add byte [eax], al
            0x00403c2c      0000           add byte [eax], al
            0x00403c2e      0000           add byte [eax], al
            0x00403c30      0000           add byte [eax], al
            0x00403c32      0000           add byte [eax], al
            0x00403c34      0000           add byte [eax], al
            0x00403c36      0000           add byte [eax], al
            0x00403c38      0000           add byte [eax], al
            0x00403c3a      0000           add byte [eax], al
            0x00403c3c      0000           add byte [eax], al
            0x00403c3e      0000           add byte [eax], al
            0x00403c40      0000           add byte [eax], al
            0x00403c42      0000           add byte [eax], al
            0x00403c44      0000           add byte [eax], al
            0x00403c46      0000           add byte [eax], al
            0x00403c48      0000           add byte [eax], al
            0x00403c4a      0000           add byte [eax], al
            0x00403c4c      0000           add byte [eax], al
            0x00403c4e      0000           add byte [eax], al
            0x00403c50      0000           add byte [eax], al
            0x00403c52      0000           add byte [eax], al
            0x00403c54      0000           add byte [eax], al
            0x00403c56      0000           add byte [eax], al
            0x00403c58      0000           add byte [eax], al
            0x00403c5a      0000           add byte [eax], al
            0x00403c5c      0000           add byte [eax], al
            0x00403c5e      0000           add byte [eax], al
            0x00403c60      0000           add byte [eax], al
            0x00403c62      0000           add byte [eax], al
            0x00403c64      0000           add byte [eax], al
            0x00403c66      0000           add byte [eax], al
            0x00403c68      0000           add byte [eax], al
            0x00403c6a      0000           add byte [eax], al
            0x00403c6c      0000           add byte [eax], al
            0x00403c6e      0000           add byte [eax], al
            0x00403c70      0000           add byte [eax], al
            0x00403c72      0000           add byte [eax], al
            0x00403c74      0000           add byte [eax], al
            0x00403c76      0000           add byte [eax], al
            0x00403c78      0000           add byte [eax], al
            0x00403c7a      0000           add byte [eax], al
            0x00403c7c      0000           add byte [eax], al
            0x00403c7e      0000           add byte [eax], al
            0x00403c80      0000           add byte [eax], al
            0x00403c82      0000           add byte [eax], al
            0x00403c84      0000           add byte [eax], al
            0x00403c86      0000           add byte [eax], al
            0x00403c88      0000           add byte [eax], al
            0x00403c8a      0000           add byte [eax], al
            0x00403c8c      0000           add byte [eax], al
            0x00403c8e      0000           add byte [eax], al
            0x00403c90      0000           add byte [eax], al
            0x00403c92      0000           add byte [eax], al
            0x00403c94      0000           add byte [eax], al
            0x00403c96      0000           add byte [eax], al
            0x00403c98      0000           add byte [eax], al
            0x00403c9a      0000           add byte [eax], al
            0x00403c9c      0000           add byte [eax], al
            0x00403c9e      0000           add byte [eax], al
            0x00403ca0      0000           add byte [eax], al
            0x00403ca2      0000           add byte [eax], al
            0x00403ca4      0000           add byte [eax], al
            0x00403ca6      0000           add byte [eax], al
            0x00403ca8      0000           add byte [eax], al
            0x00403caa      0000           add byte [eax], al
            0x00403cac      0000           add byte [eax], al
            0x00403cae      0000           add byte [eax], al
            0x00403cb0      0000           add byte [eax], al
            0x00403cb2      0000           add byte [eax], al
            0x00403cb4      0000           add byte [eax], al
            0x00403cb6      0000           add byte [eax], al
            0x00403cb8      0000           add byte [eax], al
            0x00403cba      0000           add byte [eax], al
            0x00403cbc      0000           add byte [eax], al
            0x00403cbe      0000           add byte [eax], al
            0x00403cc0      0000           add byte [eax], al
            0x00403cc2      0000           add byte [eax], al
            0x00403cc4      0000           add byte [eax], al
            0x00403cc6      0000           add byte [eax], al
            0x00403cc8      0000           add byte [eax], al
            0x00403cca      0000           add byte [eax], al
            0x00403ccc      0000           add byte [eax], al
            0x00403cce      0000           add byte [eax], al
            0x00403cd0      0000           add byte [eax], al
            0x00403cd2      0000           add byte [eax], al
            0x00403cd4      0000           add byte [eax], al
            0x00403cd6      0000           add byte [eax], al
            0x00403cd8      0000           add byte [eax], al
            0x00403cda      0000           add byte [eax], al
            0x00403cdc      0000           add byte [eax], al
            0x00403cde      0000           add byte [eax], al
            0x00403ce0      0000           add byte [eax], al
            0x00403ce2      0000           add byte [eax], al
            0x00403ce4      0000           add byte [eax], al
            0x00403ce6      0000           add byte [eax], al
            0x00403ce8      0000           add byte [eax], al
            0x00403cea      0000           add byte [eax], al
            0x00403cec      0000           add byte [eax], al
            0x00403cee      0000           add byte [eax], al
            0x00403cf0      0000           add byte [eax], al
            0x00403cf2      0000           add byte [eax], al
            0x00403cf4      0000           add byte [eax], al
            0x00403cf6      0000           add byte [eax], al
            0x00403cf8      0000           add byte [eax], al
            0x00403cfa      0000           add byte [eax], al
            0x00403cfc      0000           add byte [eax], al
            0x00403cfe      0000           add byte [eax], al
            0x00403d00      0000           add byte [eax], al
            0x00403d02      0000           add byte [eax], al
            0x00403d04      0000           add byte [eax], al
            0x00403d06      0000           add byte [eax], al
            0x00403d08      0000           add byte [eax], al
            0x00403d0a      0000           add byte [eax], al
            0x00403d0c      0000           add byte [eax], al
            0x00403d0e      0000           add byte [eax], al
            0x00403d10      0000           add byte [eax], al
            0x00403d12      0000           add byte [eax], al
            0x00403d14      0000           add byte [eax], al
            0x00403d16      0000           add byte [eax], al
            0x00403d18      0000           add byte [eax], al
            0x00403d1a      0000           add byte [eax], al
            0x00403d1c      0000           add byte [eax], al
            0x00403d1e      0000           add byte [eax], al
            0x00403d20      0000           add byte [eax], al
            0x00403d22      0000           add byte [eax], al
            0x00403d24      0000           add byte [eax], al
            0x00403d26      0000           add byte [eax], al
            0x00403d28      0000           add byte [eax], al
            0x00403d2a      0000           add byte [eax], al
            0x00403d2c      0000           add byte [eax], al
            0x00403d2e      0000           add byte [eax], al
            0x00403d30      0000           add byte [eax], al
            0x00403d32      0000           add byte [eax], al
            0x00403d34      0000           add byte [eax], al
            0x00403d36      0000           add byte [eax], al
            0x00403d38      0000           add byte [eax], al
            0x00403d3a      0000           add byte [eax], al
            0x00403d3c      0000           add byte [eax], al
            0x00403d3e      0000           add byte [eax], al
            0x00403d40      0000           add byte [eax], al
            0x00403d42      0000           add byte [eax], al
            0x00403d44      0000           add byte [eax], al
            0x00403d46      0000           add byte [eax], al
            0x00403d48      0000           add byte [eax], al
            0x00403d4a      0000           add byte [eax], al
            0x00403d4c      0000           add byte [eax], al
            0x00403d4e      0000           add byte [eax], al
            0x00403d50      0000           add byte [eax], al
            0x00403d52      0000           add byte [eax], al
            0x00403d54      0000           add byte [eax], al
            0x00403d56      0000           add byte [eax], al
            0x00403d58      0000           add byte [eax], al
            0x00403d5a      0000           add byte [eax], al
            0x00403d5c      0000           add byte [eax], al
            0x00403d5e      0000           add byte [eax], al
            0x00403d60      0000           add byte [eax], al
            0x00403d62      0000           add byte [eax], al
            0x00403d64      0000           add byte [eax], al
            0x00403d66      0000           add byte [eax], al
            0x00403d68      0000           add byte [eax], al
            0x00403d6a      0000           add byte [eax], al
            0x00403d6c      0000           add byte [eax], al
            0x00403d6e      0000           add byte [eax], al
            0x00403d70      0000           add byte [eax], al
            0x00403d72      0000           add byte [eax], al
            0x00403d74      0000           add byte [eax], al
            0x00403d76      0000           add byte [eax], al
            0x00403d78      0000           add byte [eax], al
            0x00403d7a      0000           add byte [eax], al
            0x00403d7c      0000           add byte [eax], al
            0x00403d7e      0000           add byte [eax], al
            0x00403d80      0000           add byte [eax], al
            0x00403d82      0000           add byte [eax], al
            0x00403d84      0000           add byte [eax], al
            0x00403d86      0000           add byte [eax], al
            0x00403d88      0000           add byte [eax], al
            0x00403d8a      0000           add byte [eax], al
            0x00403d8c      0000           add byte [eax], al
            0x00403d8e      0000           add byte [eax], al
            0x00403d90      0000           add byte [eax], al
            0x00403d92      0000           add byte [eax], al
            0x00403d94      0000           add byte [eax], al
            0x00403d96      0000           add byte [eax], al
            0x00403d98      0000           add byte [eax], al
            0x00403d9a      0000           add byte [eax], al
            0x00403d9c      0000           add byte [eax], al
            0x00403d9e      0000           add byte [eax], al
            0x00403da0      0000           add byte [eax], al
            0x00403da2      0000           add byte [eax], al
            0x00403da4      0000           add byte [eax], al
            0x00403da6      0000           add byte [eax], al
            0x00403da8      0000           add byte [eax], al
            0x00403daa      0000           add byte [eax], al
            0x00403dac      0000           add byte [eax], al
            0x00403dae      0000           add byte [eax], al
            0x00403db0      0000           add byte [eax], al
            0x00403db2      0000           add byte [eax], al
            0x00403db4      0000           add byte [eax], al
            0x00403db6      0000           add byte [eax], al
            0x00403db8      0000           add byte [eax], al
            0x00403dba      0000           add byte [eax], al
            0x00403dbc      0000           add byte [eax], al
            0x00403dbe      0000           add byte [eax], al
            0x00403dc0      0000           add byte [eax], al
            0x00403dc2      0000           add byte [eax], al
            0x00403dc4      0000           add byte [eax], al
            0x00403dc6      0000           add byte [eax], al
            0x00403dc8      0000           add byte [eax], al
            0x00403dca      0000           add byte [eax], al
            0x00403dcc      0000           add byte [eax], al
            0x00403dce      0000           add byte [eax], al
            0x00403dd0      0000           add byte [eax], al
            0x00403dd2      0000           add byte [eax], al
            0x00403dd4      0000           add byte [eax], al
            0x00403dd6      0000           add byte [eax], al
            0x00403dd8      0000           add byte [eax], al
            0x00403dda      0000           add byte [eax], al
            0x00403ddc      0000           add byte [eax], al
            0x00403dde      0000           add byte [eax], al
            0x00403de0      0000           add byte [eax], al
            0x00403de2      0000           add byte [eax], al
            0x00403de4      0000           add byte [eax], al
            0x00403de6      0000           add byte [eax], al
            0x00403de8      0000           add byte [eax], al
            0x00403dea      0000           add byte [eax], al
            0x00403dec      0000           add byte [eax], al
            0x00403dee      0000           add byte [eax], al
            0x00403df0      0000           add byte [eax], al
            0x00403df2      0000           add byte [eax], al
            0x00403df4      0000           add byte [eax], al
            0x00403df6      0000           add byte [eax], al
            0x00403df8      0000           add byte [eax], al
            0x00403dfa      0000           add byte [eax], al
            0x00403dfc      0000           add byte [eax], al
            0x00403dfe      0000           add byte [eax], al
            0x00403e00      0000           add byte [eax], al
            0x00403e02      0000           add byte [eax], al
            0x00403e04      0000           add byte [eax], al
            0x00403e06      0000           add byte [eax], al
            0x00403e08      0000           add byte [eax], al
            0x00403e0a      0000           add byte [eax], al
            0x00403e0c      0000           add byte [eax], al
            0x00403e0e      0000           add byte [eax], al
            0x00403e10      0000           add byte [eax], al
            0x00403e12      0000           add byte [eax], al
            0x00403e14      0000           add byte [eax], al
            0x00403e16      0000           add byte [eax], al
            0x00403e18      0000           add byte [eax], al
            0x00403e1a      0000           add byte [eax], al
            0x00403e1c      0000           add byte [eax], al
            0x00403e1e      0000           add byte [eax], al
            0x00403e20      0000           add byte [eax], al
            0x00403e22      0000           add byte [eax], al
            0x00403e24      0000           add byte [eax], al
            0x00403e26      0000           add byte [eax], al
            0x00403e28      0000           add byte [eax], al
            0x00403e2a      0000           add byte [eax], al
            0x00403e2c      0000           add byte [eax], al
            0x00403e2e      0000           add byte [eax], al
            0x00403e30      0000           add byte [eax], al
            0x00403e32      0000           add byte [eax], al
            0x00403e34      0000           add byte [eax], al
            0x00403e36      0000           add byte [eax], al
            0x00403e38      0000           add byte [eax], al
            0x00403e3a      0000           add byte [eax], al
            0x00403e3c      0000           add byte [eax], al
            0x00403e3e      0000           add byte [eax], al
            0x00403e40      0000           add byte [eax], al
            0x00403e42      0000           add byte [eax], al
            0x00403e44      0000           add byte [eax], al
            0x00403e46      0000           add byte [eax], al
            0x00403e48      0000           add byte [eax], al
            0x00403e4a      0000           add byte [eax], al
            0x00403e4c      0000           add byte [eax], al
            0x00403e4e      0000           add byte [eax], al
            0x00403e50      0000           add byte [eax], al
            0x00403e52      0000           add byte [eax], al
            0x00403e54      0000           add byte [eax], al
            0x00403e56      0000           add byte [eax], al
            0x00403e58      0000           add byte [eax], al
            0x00403e5a      0000           add byte [eax], al
            0x00403e5c      0000           add byte [eax], al
            0x00403e5e      0000           add byte [eax], al
            0x00403e60      0000           add byte [eax], al
            0x00403e62      0000           add byte [eax], al
            0x00403e64      0000           add byte [eax], al
            0x00403e66      0000           add byte [eax], al
            0x00403e68      0000           add byte [eax], al
            0x00403e6a      0000           add byte [eax], al
            0x00403e6c      0000           add byte [eax], al
            0x00403e6e      0000           add byte [eax], al
            0x00403e70      0000           add byte [eax], al
            0x00403e72      0000           add byte [eax], al
            0x00403e74      0000           add byte [eax], al
            0x00403e76      0000           add byte [eax], al
            0x00403e78      0000           add byte [eax], al
            0x00403e7a      0000           add byte [eax], al
            0x00403e7c      0000           add byte [eax], al
            0x00403e7e      0000           add byte [eax], al
            0x00403e80      0000           add byte [eax], al
            0x00403e82      0000           add byte [eax], al
            0x00403e84      0000           add byte [eax], al
            0x00403e86      0000           add byte [eax], al
            0x00403e88      0000           add byte [eax], al
            0x00403e8a      0000           add byte [eax], al
            0x00403e8c      0000           add byte [eax], al
            0x00403e8e      0000           add byte [eax], al
            0x00403e90      0000           add byte [eax], al
            0x00403e92      0000           add byte [eax], al
            0x00403e94      0000           add byte [eax], al
            0x00403e96      0000           add byte [eax], al
            0x00403e98      0000           add byte [eax], al
            0x00403e9a      0000           add byte [eax], al
            0x00403e9c      0000           add byte [eax], al
            0x00403e9e      0000           add byte [eax], al
            0x00403ea0      0000           add byte [eax], al
            0x00403ea2      0000           add byte [eax], al
            0x00403ea4      0000           add byte [eax], al
            0x00403ea6      0000           add byte [eax], al
            0x00403ea8      0000           add byte [eax], al
            0x00403eaa      0000           add byte [eax], al
            0x00403eac      0000           add byte [eax], al
            0x00403eae      0000           add byte [eax], al
            0x00403eb0      0000           add byte [eax], al
            0x00403eb2      0000           add byte [eax], al
            0x00403eb4      0000           add byte [eax], al
            0x00403eb6      0000           add byte [eax], al
            0x00403eb8      0000           add byte [eax], al
            0x00403eba      0000           add byte [eax], al
            0x00403ebc      0000           add byte [eax], al
            0x00403ebe      0000           add byte [eax], al
            0x00403ec0      0000           add byte [eax], al
            0x00403ec2      0000           add byte [eax], al
            0x00403ec4      0000           add byte [eax], al
            0x00403ec6      0000           add byte [eax], al
            0x00403ec8      0000           add byte [eax], al
            0x00403eca      0000           add byte [eax], al
            0x00403ecc      0000           add byte [eax], al
            0x00403ece      0000           add byte [eax], al
            0x00403ed0      0000           add byte [eax], al
            0x00403ed2      0000           add byte [eax], al
            0x00403ed4      0000           add byte [eax], al
            0x00403ed6      0000           add byte [eax], al
            0x00403ed8      0000           add byte [eax], al
            0x00403eda      0000           add byte [eax], al
            0x00403edc      0000           add byte [eax], al
            0x00403ede      0000           add byte [eax], al
            0x00403ee0      0000           add byte [eax], al
            0x00403ee2      0000           add byte [eax], al
            0x00403ee4      0000           add byte [eax], al
            0x00403ee6      0000           add byte [eax], al
            0x00403ee8      0000           add byte [eax], al
            0x00403eea      0000           add byte [eax], al
            0x00403eec      0000           add byte [eax], al
            0x00403eee      0000           add byte [eax], al
            0x00403ef0      0000           add byte [eax], al
            0x00403ef2      0000           add byte [eax], al
            0x00403ef4      0000           add byte [eax], al
            0x00403ef6      0000           add byte [eax], al
            0x00403ef8      0000           add byte [eax], al
            0x00403efa      0000           add byte [eax], al
            0x00403efc      0000           add byte [eax], al
            0x00403efe      0000           add byte [eax], al
            0x00403f00      0000           add byte [eax], al
            0x00403f02      0000           add byte [eax], al
            0x00403f04      0000           add byte [eax], al
            0x00403f06      0000           add byte [eax], al
            0x00403f08      0000           add byte [eax], al
            0x00403f0a      0000           add byte [eax], al
            0x00403f0c      0000           add byte [eax], al
            0x00403f0e      0000           add byte [eax], al
            0x00403f10      0000           add byte [eax], al
            0x00403f12      0000           add byte [eax], al
            0x00403f14      0000           add byte [eax], al
            0x00403f16      0000           add byte [eax], al
            0x00403f18      0000           add byte [eax], al
            0x00403f1a      0000           add byte [eax], al
            0x00403f1c      0000           add byte [eax], al
            0x00403f1e      0000           add byte [eax], al
            0x00403f20      0000           add byte [eax], al
            0x00403f22      0000           add byte [eax], al
            0x00403f24      0000           add byte [eax], al
            0x00403f26      0000           add byte [eax], al
            0x00403f28      0000           add byte [eax], al
            0x00403f2a      0000           add byte [eax], al
            0x00403f2c      0000           add byte [eax], al
            0x00403f2e      0000           add byte [eax], al
            0x00403f30      0000           add byte [eax], al
            0x00403f32      0000           add byte [eax], al
            0x00403f34      0000           add byte [eax], al
            0x00403f36      0000           add byte [eax], al
            0x00403f38      0000           add byte [eax], al
            0x00403f3a      0000           add byte [eax], al
            0x00403f3c      0000           add byte [eax], al
            0x00403f3e      0000           add byte [eax], al
            0x00403f40      0000           add byte [eax], al
            0x00403f42      0000           add byte [eax], al
            0x00403f44      0000           add byte [eax], al
            0x00403f46      0000           add byte [eax], al
            0x00403f48      0000           add byte [eax], al
            0x00403f4a      0000           add byte [eax], al
            0x00403f4c      0000           add byte [eax], al
            0x00403f4e      0000           add byte [eax], al
            0x00403f50      0000           add byte [eax], al
            0x00403f52      0000           add byte [eax], al
            0x00403f54      0000           add byte [eax], al
            0x00403f56      0000           add byte [eax], al
            0x00403f58      0000           add byte [eax], al
            0x00403f5a      0000           add byte [eax], al
            0x00403f5c      0000           add byte [eax], al
            0x00403f5e      0000           add byte [eax], al
            0x00403f60      0000           add byte [eax], al
            0x00403f62      0000           add byte [eax], al
            0x00403f64      0000           add byte [eax], al
            0x00403f66      0000           add byte [eax], al
            0x00403f68      0000           add byte [eax], al
            0x00403f6a      0000           add byte [eax], al
            0x00403f6c      0000           add byte [eax], al
            0x00403f6e      0000           add byte [eax], al
            0x00403f70      0000           add byte [eax], al
            0x00403f72      0000           add byte [eax], al
            0x00403f74      0000           add byte [eax], al
            0x00403f76      0000           add byte [eax], al
            0x00403f78      0000           add byte [eax], al
            0x00403f7a      0000           add byte [eax], al
            0x00403f7c      0000           add byte [eax], al
            0x00403f7e      0000           add byte [eax], al
            0x00403f80      0000           add byte [eax], al
            0x00403f82      0000           add byte [eax], al
            0x00403f84      0000           add byte [eax], al
            0x00403f86      0000           add byte [eax], al
            0x00403f88      0000           add byte [eax], al
            0x00403f8a      0000           add byte [eax], al
            0x00403f8c      0000           add byte [eax], al
            0x00403f8e      0000           add byte [eax], al
            0x00403f90      0000           add byte [eax], al
            0x00403f92      0000           add byte [eax], al
            0x00403f94      0000           add byte [eax], al
            0x00403f96      0000           add byte [eax], al
            0x00403f98      0000           add byte [eax], al
            0x00403f9a      0000           add byte [eax], al
            0x00403f9c      0000           add byte [eax], al
            0x00403f9e      0000           add byte [eax], al
            0x00403fa0      0000           add byte [eax], al
            0x00403fa2      0000           add byte [eax], al
            0x00403fa4      0000           add byte [eax], al
            0x00403fa6      0000           add byte [eax], al
            0x00403fa8      0000           add byte [eax], al
            0x00403faa      0000           add byte [eax], al
            0x00403fac      0000           add byte [eax], al
            0x00403fae      0000           add byte [eax], al
            0x00403fb0      0000           add byte [eax], al
            0x00403fb2      0000           add byte [eax], al
            0x00403fb4      0000           add byte [eax], al
            0x00403fb6      0000           add byte [eax], al
            0x00403fb8      0000           add byte [eax], al
            0x00403fba      0000           add byte [eax], al
            0x00403fbc      0000           add byte [eax], al
            0x00403fbe      0000           add byte [eax], al
            0x00403fc0      0000           add byte [eax], al
            0x00403fc2      0000           add byte [eax], al
            0x00403fc4      0000           add byte [eax], al
            0x00403fc6      0000           add byte [eax], al
            0x00403fc8      0000           add byte [eax], al
            0x00403fca      0000           add byte [eax], al
            0x00403fcc      0000           add byte [eax], al
            0x00403fce      0000           add byte [eax], al
            0x00403fd0      0000           add byte [eax], al
            0x00403fd2      0000           add byte [eax], al
            0x00403fd4      0000           add byte [eax], al
            0x00403fd6      0000           add byte [eax], al
            0x00403fd8      0000           add byte [eax], al
            0x00403fda      0000           add byte [eax], al
            0x00403fdc      0000           add byte [eax], al
            0x00403fde      0000           add byte [eax], al
            0x00403fe0      0000           add byte [eax], al
            0x00403fe2      0000           add byte [eax], al
            0x00403fe4      0000           add byte [eax], al
            0x00403fe6      0000           add byte [eax], al
            0x00403fe8      0000           add byte [eax], al
            0x00403fea      0000           add byte [eax], al
            0x00403fec      0000           add byte [eax], al
            0x00403fee      0000           add byte [eax], al
            0x00403ff0      0000           add byte [eax], al
            0x00403ff2      0000           add byte [eax], al
            0x00403ff4      0000           add byte [eax], al
            0x00403ff6      0000           add byte [eax], al
            0x00403ff8      0000           add byte [eax], al
            0x00403ffa      0000           add byte [eax], al
            0x00403ffc      0000           add byte [eax], al
            0x00403ffe      0000           add byte [eax], al
            ;-- section..edata:
            0x00404000      0000           add byte [eax], al          ; [03] -r-- section size 4096 named .edata
            0x00404002      0000           add byte [eax], al
            0x00404004      0000           add byte [eax], al
            0x00404006      0000           add byte [eax], al
            0x00404008      0000           add byte [eax], al
            0x0040400a      0000           add byte [eax], al
            0x0040400c      324000         xor al, byte [eax]
            0x0040400f      0001           add byte [ecx], al
            0x00404011      0000           add byte [eax], al
            0x00404013      0001           add byte [ecx], al
            0x00404015      0000           add byte [eax], al
            0x00404017      0001           add byte [ecx], al
            0x00404019      0000           add byte [eax], al
            0x0040401b      0028           add byte [eax], ch
            0x0040401d      40             inc eax
            0x0040401e      0000           add byte [eax], al
            0x00404020      2c40           sub al, 0x40                ; 64
            0x00404022      0000           add byte [eax], al
            0x00404024      304000         xor byte [eax], al
            0x00404027      0028           add byte [eax], ch
            0x00404029      1100           adc dword [eax], eax
            0x0040402b      003e           add byte [esi], bh
            0x0040402d      40             inc eax
            0x0040402e      0000           add byte [eax], al
            0x00404030      0000           add byte [eax], al
            0x00404032      637261         arpl word [edx + 0x61], si
            0x00404035      636b6d         arpl word [ebx + 0x6d], bp
            0x00404038      652e45         inc ebp
            0x0040403b      58             pop eax
            0x0040403c      45             inc ebp
            0x0040403d      00576e         add byte [edi + 0x6e], dl
            0x00404040      6450           push eax
            0x00404042      726f           jb 0x4040b3
            0x00404044      6300           arpl word [eax], ax
            0x00404046      0000           add byte [eax], al
            0x00404048      0000           add byte [eax], al
            0x0040404a      0000           add byte [eax], al
            0x0040404c      0000           add byte [eax], al
            0x0040404e      0000           add byte [eax], al
            0x00404050      0000           add byte [eax], al
            0x00404052      0000           add byte [eax], al
            0x00404054      0000           add byte [eax], al
            0x00404056      0000           add byte [eax], al
            0x00404058      0000           add byte [eax], al
            0x0040405a      0000           add byte [eax], al
            0x0040405c      0000           add byte [eax], al
            0x0040405e      0000           add byte [eax], al
            0x00404060      0000           add byte [eax], al
            0x00404062      0000           add byte [eax], al
            0x00404064      0000           add byte [eax], al
            0x00404066      0000           add byte [eax], al
            0x00404068      0000           add byte [eax], al
            0x0040406a      0000           add byte [eax], al
            0x0040406c      0000           add byte [eax], al
            0x0040406e      0000           add byte [eax], al
            0x00404070      0000           add byte [eax], al
            0x00404072      0000           add byte [eax], al
            0x00404074      0000           add byte [eax], al
            0x00404076      0000           add byte [eax], al
            0x00404078      0000           add byte [eax], al
            0x0040407a      0000           add byte [eax], al
            0x0040407c      0000           add byte [eax], al
            0x0040407e      0000           add byte [eax], al
            0x00404080      0000           add byte [eax], al
            0x00404082      0000           add byte [eax], al
            0x00404084      0000           add byte [eax], al
            0x00404086      0000           add byte [eax], al
            0x00404088      0000           add byte [eax], al
            0x0040408a      0000           add byte [eax], al
            0x0040408c      0000           add byte [eax], al
            0x0040408e      0000           add byte [eax], al
            0x00404090      0000           add byte [eax], al
            0x00404092      0000           add byte [eax], al
            0x00404094      0000           add byte [eax], al
            0x00404096      0000           add byte [eax], al
            0x00404098      0000           add byte [eax], al
            0x0040409a      0000           add byte [eax], al
            0x0040409c      0000           add byte [eax], al
            0x0040409e      0000           add byte [eax], al
            0x004040a0      0000           add byte [eax], al
            0x004040a2      0000           add byte [eax], al
            0x004040a4      0000           add byte [eax], al
            0x004040a6      0000           add byte [eax], al
            0x004040a8      0000           add byte [eax], al
            0x004040aa      0000           add byte [eax], al
            0x004040ac      0000           add byte [eax], al
            0x004040ae      0000           add byte [eax], al
            0x004040b0      0000           add byte [eax], al
            0x004040b2      0000           add byte [eax], al
            0x004040b4      0000           add byte [eax], al
            0x004040b6      0000           add byte [eax], al
            0x004040b8      0000           add byte [eax], al
            0x004040ba      0000           add byte [eax], al
            0x004040bc      0000           add byte [eax], al
            0x004040be      0000           add byte [eax], al
            0x004040c0      0000           add byte [eax], al
            0x004040c2      0000           add byte [eax], al
            0x004040c4      0000           add byte [eax], al
            0x004040c6      0000           add byte [eax], al
            0x004040c8      0000           add byte [eax], al
            0x004040ca      0000           add byte [eax], al
            0x004040cc      0000           add byte [eax], al
            0x004040ce      0000           add byte [eax], al
            0x004040d0      0000           add byte [eax], al
            0x004040d2      0000           add byte [eax], al
            0x004040d4      0000           add byte [eax], al
            0x004040d6      0000           add byte [eax], al
            0x004040d8      0000           add byte [eax], al
            0x004040da      0000           add byte [eax], al
            0x004040dc      0000           add byte [eax], al
            0x004040de      0000           add byte [eax], al
            0x004040e0      0000           add byte [eax], al
            0x004040e2      0000           add byte [eax], al
            0x004040e4      0000           add byte [eax], al
            0x004040e6      0000           add byte [eax], al
            0x004040e8      0000           add byte [eax], al
            0x004040ea      0000           add byte [eax], al
            0x004040ec      0000           add byte [eax], al
            0x004040ee      0000           add byte [eax], al
            0x004040f0      0000           add byte [eax], al
            0x004040f2      0000           add byte [eax], al
            0x004040f4      0000           add byte [eax], al
            0x004040f6      0000           add byte [eax], al
            0x004040f8      0000           add byte [eax], al
            0x004040fa      0000           add byte [eax], al
            0x004040fc      0000           add byte [eax], al
            0x004040fe      0000           add byte [eax], al
            0x00404100      0000           add byte [eax], al
            0x00404102      0000           add byte [eax], al
            0x00404104      0000           add byte [eax], al
            0x00404106      0000           add byte [eax], al
            0x00404108      0000           add byte [eax], al
            0x0040410a      0000           add byte [eax], al
            0x0040410c      0000           add byte [eax], al
            0x0040410e      0000           add byte [eax], al
            0x00404110      0000           add byte [eax], al
            0x00404112      0000           add byte [eax], al
            0x00404114      0000           add byte [eax], al
            0x00404116      0000           add byte [eax], al
            0x00404118      0000           add byte [eax], al
            0x0040411a      0000           add byte [eax], al
            0x0040411c      0000           add byte [eax], al
            0x0040411e      0000           add byte [eax], al
            0x00404120      0000           add byte [eax], al
            0x00404122      0000           add byte [eax], al
            0x00404124      0000           add byte [eax], al
            0x00404126      0000           add byte [eax], al
            0x00404128      0000           add byte [eax], al
            0x0040412a      0000           add byte [eax], al
            0x0040412c      0000           add byte [eax], al
            0x0040412e      0000           add byte [eax], al
            0x00404130      0000           add byte [eax], al
            0x00404132      0000           add byte [eax], al
            0x00404134      0000           add byte [eax], al
            0x00404136      0000           add byte [eax], al
            0x00404138      0000           add byte [eax], al
            0x0040413a      0000           add byte [eax], al
            0x0040413c      0000           add byte [eax], al
            0x0040413e      0000           add byte [eax], al
            0x00404140      0000           add byte [eax], al
            0x00404142      0000           add byte [eax], al
            0x00404144      0000           add byte [eax], al
            0x00404146      0000           add byte [eax], al
            0x00404148      0000           add byte [eax], al
            0x0040414a      0000           add byte [eax], al
            0x0040414c      0000           add byte [eax], al
            0x0040414e      0000           add byte [eax], al
            0x00404150      0000           add byte [eax], al
            0x00404152      0000           add byte [eax], al
            0x00404154      0000           add byte [eax], al
            0x00404156      0000           add byte [eax], al
            0x00404158      0000           add byte [eax], al
            0x0040415a      0000           add byte [eax], al
            0x0040415c      0000           add byte [eax], al
            0x0040415e      0000           add byte [eax], al
            0x00404160      0000           add byte [eax], al
            0x00404162      0000           add byte [eax], al
            0x00404164      0000           add byte [eax], al
            0x00404166      0000           add byte [eax], al
            0x00404168      0000           add byte [eax], al
            0x0040416a      0000           add byte [eax], al
            0x0040416c      0000           add byte [eax], al
            0x0040416e      0000           add byte [eax], al
            0x00404170      0000           add byte [eax], al
            0x00404172      0000           add byte [eax], al
            0x00404174      0000           add byte [eax], al
            0x00404176      0000           add byte [eax], al
            0x00404178      0000           add byte [eax], al
            0x0040417a      0000           add byte [eax], al
            0x0040417c      0000           add byte [eax], al
            0x0040417e      0000           add byte [eax], al
            0x00404180      0000           add byte [eax], al
            0x00404182      0000           add byte [eax], al
            0x00404184      0000           add byte [eax], al
            0x00404186      0000           add byte [eax], al
            0x00404188      0000           add byte [eax], al
            0x0040418a      0000           add byte [eax], al
            0x0040418c      0000           add byte [eax], al
            0x0040418e      0000           add byte [eax], al
            0x00404190      0000           add byte [eax], al
            0x00404192      0000           add byte [eax], al
            0x00404194      0000           add byte [eax], al
            0x00404196      0000           add byte [eax], al
            0x00404198      0000           add byte [eax], al
            0x0040419a      0000           add byte [eax], al
            0x0040419c      0000           add byte [eax], al
            0x0040419e      0000           add byte [eax], al
            0x004041a0      0000           add byte [eax], al
            0x004041a2      0000           add byte [eax], al
            0x004041a4      0000           add byte [eax], al
            0x004041a6      0000           add byte [eax], al
            0x004041a8      0000           add byte [eax], al
            0x004041aa      0000           add byte [eax], al
            0x004041ac      0000           add byte [eax], al
            0x004041ae      0000           add byte [eax], al
            0x004041b0      0000           add byte [eax], al
            0x004041b2      0000           add byte [eax], al
            0x004041b4      0000           add byte [eax], al
            0x004041b6      0000           add byte [eax], al
            0x004041b8      0000           add byte [eax], al
            0x004041ba      0000           add byte [eax], al
            0x004041bc      0000           add byte [eax], al
            0x004041be      0000           add byte [eax], al
            0x004041c0      0000           add byte [eax], al
            0x004041c2      0000           add byte [eax], al
            0x004041c4      0000           add byte [eax], al
            0x004041c6      0000           add byte [eax], al
            0x004041c8      0000           add byte [eax], al
            0x004041ca      0000           add byte [eax], al
            0x004041cc      0000           add byte [eax], al
            0x004041ce      0000           add byte [eax], al
            0x004041d0      0000           add byte [eax], al
            0x004041d2      0000           add byte [eax], al
            0x004041d4      0000           add byte [eax], al
            0x004041d6      0000           add byte [eax], al
            0x004041d8      0000           add byte [eax], al
            0x004041da      0000           add byte [eax], al
            0x004041dc      0000           add byte [eax], al
            0x004041de      0000           add byte [eax], al
            0x004041e0      0000           add byte [eax], al
            0x004041e2      0000           add byte [eax], al
            0x004041e4      0000           add byte [eax], al
            0x004041e6      0000           add byte [eax], al
            0x004041e8      0000           add byte [eax], al
            0x004041ea      0000           add byte [eax], al
            0x004041ec      0000           add byte [eax], al
            0x004041ee      0000           add byte [eax], al
            0x004041f0      0000           add byte [eax], al
            0x004041f2      0000           add byte [eax], al
            0x004041f4      0000           add byte [eax], al
            0x004041f6      0000           add byte [eax], al
            0x004041f8      0000           add byte [eax], al
            0x004041fa      0000           add byte [eax], al
            0x004041fc      0000           add byte [eax], al
            0x004041fe      0000           add byte [eax], al
            0x00404200      0000           add byte [eax], al
            0x00404202      0000           add byte [eax], al
            0x00404204      0000           add byte [eax], al
            0x00404206      0000           add byte [eax], al
            0x00404208      0000           add byte [eax], al
            0x0040420a      0000           add byte [eax], al
            0x0040420c      0000           add byte [eax], al
            0x0040420e      0000           add byte [eax], al
            0x00404210      0000           add byte [eax], al
            0x00404212      0000           add byte [eax], al
            0x00404214      0000           add byte [eax], al
            0x00404216      0000           add byte [eax], al
            0x00404218      0000           add byte [eax], al
            0x0040421a      0000           add byte [eax], al
            0x0040421c      0000           add byte [eax], al
            0x0040421e      0000           add byte [eax], al
            0x00404220      0000           add byte [eax], al
            0x00404222      0000           add byte [eax], al
            0x00404224      0000           add byte [eax], al
            0x00404226      0000           add byte [eax], al
            0x00404228      0000           add byte [eax], al
            0x0040422a      0000           add byte [eax], al
            0x0040422c      0000           add byte [eax], al
            0x0040422e      0000           add byte [eax], al
            0x00404230      0000           add byte [eax], al
            0x00404232      0000           add byte [eax], al
            0x00404234      0000           add byte [eax], al
            0x00404236      0000           add byte [eax], al
            0x00404238      0000           add byte [eax], al
            0x0040423a      0000           add byte [eax], al
            0x0040423c      0000           add byte [eax], al
            0x0040423e      0000           add byte [eax], al
            0x00404240      0000           add byte [eax], al
            0x00404242      0000           add byte [eax], al
            0x00404244      0000           add byte [eax], al
            0x00404246      0000           add byte [eax], al
            0x00404248      0000           add byte [eax], al
            0x0040424a      0000           add byte [eax], al
            0x0040424c      0000           add byte [eax], al
            0x0040424e      0000           add byte [eax], al
            0x00404250      0000           add byte [eax], al
            0x00404252      0000           add byte [eax], al
            0x00404254      0000           add byte [eax], al
            0x00404256      0000           add byte [eax], al
            0x00404258      0000           add byte [eax], al
            0x0040425a      0000           add byte [eax], al
            0x0040425c      0000           add byte [eax], al
            0x0040425e      0000           add byte [eax], al
            0x00404260      0000           add byte [eax], al
            0x00404262      0000           add byte [eax], al
            0x00404264      0000           add byte [eax], al
            0x00404266      0000           add byte [eax], al
            0x00404268      0000           add byte [eax], al
            0x0040426a      0000           add byte [eax], al
            0x0040426c      0000           add byte [eax], al
            0x0040426e      0000           add byte [eax], al
            0x00404270      0000           add byte [eax], al
            0x00404272      0000           add byte [eax], al
            0x00404274      0000           add byte [eax], al
            0x00404276      0000           add byte [eax], al
            0x00404278      0000           add byte [eax], al
            0x0040427a      0000           add byte [eax], al
            0x0040427c      0000           add byte [eax], al
            0x0040427e      0000           add byte [eax], al
            0x00404280      0000           add byte [eax], al
            0x00404282      0000           add byte [eax], al
            0x00404284      0000           add byte [eax], al
            0x00404286      0000           add byte [eax], al
            0x00404288      0000           add byte [eax], al
            0x0040428a      0000           add byte [eax], al
            0x0040428c      0000           add byte [eax], al
            0x0040428e      0000           add byte [eax], al
            0x00404290      0000           add byte [eax], al
            0x00404292      0000           add byte [eax], al
            0x00404294      0000           add byte [eax], al
            0x00404296      0000           add byte [eax], al
            0x00404298      0000           add byte [eax], al
            0x0040429a      0000           add byte [eax], al
            0x0040429c      0000           add byte [eax], al
            0x0040429e      0000           add byte [eax], al
            0x004042a0      0000           add byte [eax], al
            0x004042a2      0000           add byte [eax], al
            0x004042a4      0000           add byte [eax], al
            0x004042a6      0000           add byte [eax], al
            0x004042a8      0000           add byte [eax], al
            0x004042aa      0000           add byte [eax], al
            0x004042ac      0000           add byte [eax], al
            0x004042ae      0000           add byte [eax], al
            0x004042b0      0000           add byte [eax], al
            0x004042b2      0000           add byte [eax], al
            0x004042b4      0000           add byte [eax], al
            0x004042b6      0000           add byte [eax], al
            0x004042b8      0000           add byte [eax], al
            0x004042ba      0000           add byte [eax], al
            0x004042bc      0000           add byte [eax], al
            0x004042be      0000           add byte [eax], al
            0x004042c0      0000           add byte [eax], al
            0x004042c2      0000           add byte [eax], al
            0x004042c4      0000           add byte [eax], al
            0x004042c6      0000           add byte [eax], al
            0x004042c8      0000           add byte [eax], al
            0x004042ca      0000           add byte [eax], al
            0x004042cc      0000           add byte [eax], al
            0x004042ce      0000           add byte [eax], al
            0x004042d0      0000           add byte [eax], al
            0x004042d2      0000           add byte [eax], al
            0x004042d4      0000           add byte [eax], al
            0x004042d6      0000           add byte [eax], al
            0x004042d8      0000           add byte [eax], al
            0x004042da      0000           add byte [eax], al
            0x004042dc      0000           add byte [eax], al
            0x004042de      0000           add byte [eax], al
            0x004042e0      0000           add byte [eax], al
            0x004042e2      0000           add byte [eax], al
            0x004042e4      0000           add byte [eax], al
            0x004042e6      0000           add byte [eax], al
            0x004042e8      0000           add byte [eax], al
            0x004042ea      0000           add byte [eax], al
            0x004042ec      0000           add byte [eax], al
            0x004042ee      0000           add byte [eax], al
            0x004042f0      0000           add byte [eax], al
            0x004042f2      0000           add byte [eax], al
            0x004042f4      0000           add byte [eax], al
            0x004042f6      0000           add byte [eax], al
            0x004042f8      0000           add byte [eax], al
            0x004042fa      0000           add byte [eax], al
            0x004042fc      0000           add byte [eax], al
            0x004042fe      0000           add byte [eax], al
            0x00404300      0000           add byte [eax], al
            0x00404302      0000           add byte [eax], al
            0x00404304      0000           add byte [eax], al
            0x00404306      0000           add byte [eax], al
            0x00404308      0000           add byte [eax], al
            0x0040430a      0000           add byte [eax], al
            0x0040430c      0000           add byte [eax], al
            0x0040430e      0000           add byte [eax], al
            0x00404310      0000           add byte [eax], al
            0x00404312      0000           add byte [eax], al
            0x00404314      0000           add byte [eax], al
            0x00404316      0000           add byte [eax], al
            0x00404318      0000           add byte [eax], al
            0x0040431a      0000           add byte [eax], al
            0x0040431c      0000           add byte [eax], al
            0x0040431e      0000           add byte [eax], al
            0x00404320      0000           add byte [eax], al
            0x00404322      0000           add byte [eax], al
            0x00404324      0000           add byte [eax], al
            0x00404326      0000           add byte [eax], al
            0x00404328      0000           add byte [eax], al
            0x0040432a      0000           add byte [eax], al
            0x0040432c      0000           add byte [eax], al
            0x0040432e      0000           add byte [eax], al
            0x00404330      0000           add byte [eax], al
            0x00404332      0000           add byte [eax], al
            0x00404334      0000           add byte [eax], al
            0x00404336      0000           add byte [eax], al
            0x00404338      0000           add byte [eax], al
            0x0040433a      0000           add byte [eax], al
            0x0040433c      0000           add byte [eax], al
            0x0040433e      0000           add byte [eax], al
            0x00404340      0000           add byte [eax], al
            0x00404342      0000           add byte [eax], al
            0x00404344      0000           add byte [eax], al
            0x00404346      0000           add byte [eax], al
            0x00404348      0000           add byte [eax], al
            0x0040434a      0000           add byte [eax], al
            0x0040434c      0000           add byte [eax], al
            0x0040434e      0000           add byte [eax], al
            0x00404350      0000           add byte [eax], al
            0x00404352      0000           add byte [eax], al
            0x00404354      0000           add byte [eax], al
            0x00404356      0000           add byte [eax], al
            0x00404358      0000           add byte [eax], al
            0x0040435a      0000           add byte [eax], al
            0x0040435c      0000           add byte [eax], al
            0x0040435e      0000           add byte [eax], al
            0x00404360      0000           add byte [eax], al
            0x00404362      0000           add byte [eax], al
            0x00404364      0000           add byte [eax], al
            0x00404366      0000           add byte [eax], al
            0x00404368      0000           add byte [eax], al
            0x0040436a      0000           add byte [eax], al
            0x0040436c      0000           add byte [eax], al
            0x0040436e      0000           add byte [eax], al
            0x00404370      0000           add byte [eax], al
            0x00404372      0000           add byte [eax], al
            0x00404374      0000           add byte [eax], al
            0x00404376      0000           add byte [eax], al
            0x00404378      0000           add byte [eax], al
            0x0040437a      0000           add byte [eax], al
            0x0040437c      0000           add byte [eax], al
            0x0040437e      0000           add byte [eax], al
            0x00404380      0000           add byte [eax], al
            0x00404382      0000           add byte [eax], al
            0x00404384      0000           add byte [eax], al
            0x00404386      0000           add byte [eax], al
            0x00404388      0000           add byte [eax], al
            0x0040438a      0000           add byte [eax], al
            0x0040438c      0000           add byte [eax], al
            0x0040438e      0000           add byte [eax], al
            0x00404390      0000           add byte [eax], al
            0x00404392      0000           add byte [eax], al
            0x00404394      0000           add byte [eax], al
            0x00404396      0000           add byte [eax], al
            0x00404398      0000           add byte [eax], al
            0x0040439a      0000           add byte [eax], al
            0x0040439c      0000           add byte [eax], al
            0x0040439e      0000           add byte [eax], al
            0x004043a0      0000           add byte [eax], al
            0x004043a2      0000           add byte [eax], al
            0x004043a4      0000           add byte [eax], al
            0x004043a6      0000           add byte [eax], al
            0x004043a8      0000           add byte [eax], al
            0x004043aa      0000           add byte [eax], al
            0x004043ac      0000           add byte [eax], al
            0x004043ae      0000           add byte [eax], al
            0x004043b0      0000           add byte [eax], al
            0x004043b2      0000           add byte [eax], al
            0x004043b4      0000           add byte [eax], al
            0x004043b6      0000           add byte [eax], al
            0x004043b8      0000           add byte [eax], al
            0x004043ba      0000           add byte [eax], al
            0x004043bc      0000           add byte [eax], al
            0x004043be      0000           add byte [eax], al
            0x004043c0      0000           add byte [eax], al
            0x004043c2      0000           add byte [eax], al
            0x004043c4      0000           add byte [eax], al
            0x004043c6      0000           add byte [eax], al
            0x004043c8      0000           add byte [eax], al
            0x004043ca      0000           add byte [eax], al
            0x004043cc      0000           add byte [eax], al
            0x004043ce      0000           add byte [eax], al
            0x004043d0      0000           add byte [eax], al
            0x004043d2      0000           add byte [eax], al
            0x004043d4      0000           add byte [eax], al
            0x004043d6      0000           add byte [eax], al
            0x004043d8      0000           add byte [eax], al
            0x004043da      0000           add byte [eax], al
            0x004043dc      0000           add byte [eax], al
            0x004043de      0000           add byte [eax], al
            0x004043e0      0000           add byte [eax], al
            0x004043e2      0000           add byte [eax], al
            0x004043e4      0000           add byte [eax], al
            0x004043e6      0000           add byte [eax], al
            0x004043e8      0000           add byte [eax], al
            0x004043ea      0000           add byte [eax], al
            0x004043ec      0000           add byte [eax], al
            0x004043ee      0000           add byte [eax], al
            0x004043f0      0000           add byte [eax], al
            0x004043f2      0000           add byte [eax], al
            0x004043f4      0000           add byte [eax], al
            0x004043f6      0000           add byte [eax], al
            0x004043f8      0000           add byte [eax], al
            0x004043fa      0000           add byte [eax], al
            0x004043fc      0000           add byte [eax], al
            0x004043fe      0000           add byte [eax], al
            0x00404400      0000           add byte [eax], al
            0x00404402      0000           add byte [eax], al
            0x00404404      0000           add byte [eax], al
            0x00404406      0000           add byte [eax], al
            0x00404408      0000           add byte [eax], al
            0x0040440a      0000           add byte [eax], al
            0x0040440c      0000           add byte [eax], al
            0x0040440e      0000           add byte [eax], al
            0x00404410      0000           add byte [eax], al
            0x00404412      0000           add byte [eax], al
            0x00404414      0000           add byte [eax], al
            0x00404416      0000           add byte [eax], al
            0x00404418      0000           add byte [eax], al
            0x0040441a      0000           add byte [eax], al
            0x0040441c      0000           add byte [eax], al
            0x0040441e      0000           add byte [eax], al
            0x00404420      0000           add byte [eax], al
            0x00404422      0000           add byte [eax], al
            0x00404424      0000           add byte [eax], al
            0x00404426      0000           add byte [eax], al
            0x00404428      0000           add byte [eax], al
            0x0040442a      0000           add byte [eax], al
            0x0040442c      0000           add byte [eax], al
            0x0040442e      0000           add byte [eax], al
            0x00404430      0000           add byte [eax], al
            0x00404432      0000           add byte [eax], al
            0x00404434      0000           add byte [eax], al
            0x00404436      0000           add byte [eax], al
            0x00404438      0000           add byte [eax], al
            0x0040443a      0000           add byte [eax], al
            0x0040443c      0000           add byte [eax], al
            0x0040443e      0000           add byte [eax], al
            0x00404440      0000           add byte [eax], al
            0x00404442      0000           add byte [eax], al
            0x00404444      0000           add byte [eax], al
            0x00404446      0000           add byte [eax], al
            0x00404448      0000           add byte [eax], al
            0x0040444a      0000           add byte [eax], al
            0x0040444c      0000           add byte [eax], al
            0x0040444e      0000           add byte [eax], al
            0x00404450      0000           add byte [eax], al
            0x00404452      0000           add byte [eax], al
            0x00404454      0000           add byte [eax], al
            0x00404456      0000           add byte [eax], al
            0x00404458      0000           add byte [eax], al
            0x0040445a      0000           add byte [eax], al
            0x0040445c      0000           add byte [eax], al
            0x0040445e      0000           add byte [eax], al
            0x00404460      0000           add byte [eax], al
            0x00404462      0000           add byte [eax], al
            0x00404464      0000           add byte [eax], al
            0x00404466      0000           add byte [eax], al
            0x00404468      0000           add byte [eax], al
            0x0040446a      0000           add byte [eax], al
            0x0040446c      0000           add byte [eax], al
            0x0040446e      0000           add byte [eax], al
            0x00404470      0000           add byte [eax], al
            0x00404472      0000           add byte [eax], al
            0x00404474      0000           add byte [eax], al
            0x00404476      0000           add byte [eax], al
            0x00404478      0000           add byte [eax], al
            0x0040447a      0000           add byte [eax], al
            0x0040447c      0000           add byte [eax], al
            0x0040447e      0000           add byte [eax], al
            0x00404480      0000           add byte [eax], al
            0x00404482      0000           add byte [eax], al
            0x00404484      0000           add byte [eax], al
            0x00404486      0000           add byte [eax], al
            0x00404488      0000           add byte [eax], al
            0x0040448a      0000           add byte [eax], al
            0x0040448c      0000           add byte [eax], al
            0x0040448e      0000           add byte [eax], al
            0x00404490      0000           add byte [eax], al
            0x00404492      0000           add byte [eax], al
            0x00404494      0000           add byte [eax], al
            0x00404496      0000           add byte [eax], al
            0x00404498      0000           add byte [eax], al
            0x0040449a      0000           add byte [eax], al
            0x0040449c      0000           add byte [eax], al
            0x0040449e      0000           add byte [eax], al
            0x004044a0      0000           add byte [eax], al
            0x004044a2      0000           add byte [eax], al
            0x004044a4      0000           add byte [eax], al
            0x004044a6      0000           add byte [eax], al
            0x004044a8      0000           add byte [eax], al
            0x004044aa      0000           add byte [eax], al
            0x004044ac      0000           add byte [eax], al
            0x004044ae      0000           add byte [eax], al
            0x004044b0      0000           add byte [eax], al
            0x004044b2      0000           add byte [eax], al
            0x004044b4      0000           add byte [eax], al
            0x004044b6      0000           add byte [eax], al
            0x004044b8      0000           add byte [eax], al
            0x004044ba      0000           add byte [eax], al
            0x004044bc      0000           add byte [eax], al
            0x004044be      0000           add byte [eax], al
            0x004044c0      0000           add byte [eax], al
            0x004044c2      0000           add byte [eax], al
            0x004044c4      0000           add byte [eax], al
            0x004044c6      0000           add byte [eax], al
            0x004044c8      0000           add byte [eax], al
            0x004044ca      0000           add byte [eax], al
            0x004044cc      0000           add byte [eax], al
            0x004044ce      0000           add byte [eax], al
            0x004044d0      0000           add byte [eax], al
            0x004044d2      0000           add byte [eax], al
            0x004044d4      0000           add byte [eax], al
            0x004044d6      0000           add byte [eax], al
            0x004044d8      0000           add byte [eax], al
            0x004044da      0000           add byte [eax], al
            0x004044dc      0000           add byte [eax], al
            0x004044de      0000           add byte [eax], al
            0x004044e0      0000           add byte [eax], al
            0x004044e2      0000           add byte [eax], al
            0x004044e4      0000           add byte [eax], al
            0x004044e6      0000           add byte [eax], al
            0x004044e8      0000           add byte [eax], al
            0x004044ea      0000           add byte [eax], al
            0x004044ec      0000           add byte [eax], al
            0x004044ee      0000           add byte [eax], al
            0x004044f0      0000           add byte [eax], al
            0x004044f2      0000           add byte [eax], al
            0x004044f4      0000           add byte [eax], al
            0x004044f6      0000           add byte [eax], al
            0x004044f8      0000           add byte [eax], al
            0x004044fa      0000           add byte [eax], al
            0x004044fc      0000           add byte [eax], al
            0x004044fe      0000           add byte [eax], al
            0x00404500      0000           add byte [eax], al
            0x00404502      0000           add byte [eax], al
            0x00404504      0000           add byte [eax], al
            0x00404506      0000           add byte [eax], al
            0x00404508      0000           add byte [eax], al
            0x0040450a      0000           add byte [eax], al
            0x0040450c      0000           add byte [eax], al
            0x0040450e      0000           add byte [eax], al
            0x00404510      0000           add byte [eax], al
            0x00404512      0000           add byte [eax], al
            0x00404514      0000           add byte [eax], al
            0x00404516      0000           add byte [eax], al
            0x00404518      0000           add byte [eax], al
            0x0040451a      0000           add byte [eax], al
            0x0040451c      0000           add byte [eax], al
            0x0040451e      0000           add byte [eax], al
            0x00404520      0000           add byte [eax], al
            0x00404522      0000           add byte [eax], al
            0x00404524      0000           add byte [eax], al
            0x00404526      0000           add byte [eax], al
            0x00404528      0000           add byte [eax], al
            0x0040452a      0000           add byte [eax], al
            0x0040452c      0000           add byte [eax], al
            0x0040452e      0000           add byte [eax], al
            0x00404530      0000           add byte [eax], al
            0x00404532      0000           add byte [eax], al
            0x00404534      0000           add byte [eax], al
            0x00404536      0000           add byte [eax], al
            0x00404538      0000           add byte [eax], al
            0x0040453a      0000           add byte [eax], al
            0x0040453c      0000           add byte [eax], al
            0x0040453e      0000           add byte [eax], al
            0x00404540      0000           add byte [eax], al
            0x00404542      0000           add byte [eax], al
            0x00404544      0000           add byte [eax], al
            0x00404546      0000           add byte [eax], al
            0x00404548      0000           add byte [eax], al
            0x0040454a      0000           add byte [eax], al
            0x0040454c      0000           add byte [eax], al
            0x0040454e      0000           add byte [eax], al
            0x00404550      0000           add byte [eax], al
            0x00404552      0000           add byte [eax], al
            0x00404554      0000           add byte [eax], al
            0x00404556      0000           add byte [eax], al
            0x00404558      0000           add byte [eax], al
            0x0040455a      0000           add byte [eax], al
            0x0040455c      0000           add byte [eax], al
            0x0040455e      0000           add byte [eax], al
            0x00404560      0000           add byte [eax], al
            0x00404562      0000           add byte [eax], al
            0x00404564      0000           add byte [eax], al
            0x00404566      0000           add byte [eax], al
            0x00404568      0000           add byte [eax], al
            0x0040456a      0000           add byte [eax], al
            0x0040456c      0000           add byte [eax], al
            0x0040456e      0000           add byte [eax], al
            0x00404570      0000           add byte [eax], al
            0x00404572      0000           add byte [eax], al
            0x00404574      0000           add byte [eax], al
            0x00404576      0000           add byte [eax], al
            0x00404578      0000           add byte [eax], al
            0x0040457a      0000           add byte [eax], al
            0x0040457c      0000           add byte [eax], al
            0x0040457e      0000           add byte [eax], al
            0x00404580      0000           add byte [eax], al
            0x00404582      0000           add byte [eax], al
            0x00404584      0000           add byte [eax], al
            0x00404586      0000           add byte [eax], al
            0x00404588      0000           add byte [eax], al
            0x0040458a      0000           add byte [eax], al
            0x0040458c      0000           add byte [eax], al
            0x0040458e      0000           add byte [eax], al
            0x00404590      0000           add byte [eax], al
            0x00404592      0000           add byte [eax], al
            0x00404594      0000           add byte [eax], al
            0x00404596      0000           add byte [eax], al
            0x00404598      0000           add byte [eax], al
            0x0040459a      0000           add byte [eax], al
            0x0040459c      0000           add byte [eax], al
            0x0040459e      0000           add byte [eax], al
            0x004045a0      0000           add byte [eax], al
            0x004045a2      0000           add byte [eax], al
            0x004045a4      0000           add byte [eax], al
            0x004045a6      0000           add byte [eax], al
            0x004045a8      0000           add byte [eax], al
            0x004045aa      0000           add byte [eax], al
            0x004045ac      0000           add byte [eax], al
            0x004045ae      0000           add byte [eax], al
            0x004045b0      0000           add byte [eax], al
            0x004045b2      0000           add byte [eax], al
            0x004045b4      0000           add byte [eax], al
            0x004045b6      0000           add byte [eax], al
            0x004045b8      0000           add byte [eax], al
            0x004045ba      0000           add byte [eax], al
            0x004045bc      0000           add byte [eax], al
            0x004045be      0000           add byte [eax], al
            0x004045c0      0000           add byte [eax], al
            0x004045c2      0000           add byte [eax], al
            0x004045c4      0000           add byte [eax], al
            0x004045c6      0000           add byte [eax], al
            0x004045c8      0000           add byte [eax], al
            0x004045ca      0000           add byte [eax], al
            0x004045cc      0000           add byte [eax], al
            0x004045ce      0000           add byte [eax], al
            0x004045d0      0000           add byte [eax], al
            0x004045d2      0000           add byte [eax], al
            0x004045d4      0000           add byte [eax], al
            0x004045d6      0000           add byte [eax], al
            0x004045d8      0000           add byte [eax], al
            0x004045da      0000           add byte [eax], al
            0x004045dc      0000           add byte [eax], al
            0x004045de      0000           add byte [eax], al
            0x004045e0      0000           add byte [eax], al
            0x004045e2      0000           add byte [eax], al
            0x004045e4      0000           add byte [eax], al
            0x004045e6      0000           add byte [eax], al
            0x004045e8      0000           add byte [eax], al
            0x004045ea      0000           add byte [eax], al
            0x004045ec      0000           add byte [eax], al
            0x004045ee      0000           add byte [eax], al
            0x004045f0      0000           add byte [eax], al
            0x004045f2      0000           add byte [eax], al
            0x004045f4      0000           add byte [eax], al
            0x004045f6      0000           add byte [eax], al
            0x004045f8      0000           add byte [eax], al
            0x004045fa      0000           add byte [eax], al
            0x004045fc      0000           add byte [eax], al
            0x004045fe      0000           add byte [eax], al
            0x00404600      0000           add byte [eax], al
            0x00404602      0000           add byte [eax], al
            0x00404604      0000           add byte [eax], al
            0x00404606      0000           add byte [eax], al
            0x00404608      0000           add byte [eax], al
            0x0040460a      0000           add byte [eax], al
            0x0040460c      0000           add byte [eax], al
            0x0040460e      0000           add byte [eax], al
            0x00404610      0000           add byte [eax], al
            0x00404612      0000           add byte [eax], al
            0x00404614      0000           add byte [eax], al
            0x00404616      0000           add byte [eax], al
            0x00404618      0000           add byte [eax], al
            0x0040461a      0000           add byte [eax], al
            0x0040461c      0000           add byte [eax], al
            0x0040461e      0000           add byte [eax], al
            0x00404620      0000           add byte [eax], al
            0x00404622      0000           add byte [eax], al
            0x00404624      0000           add byte [eax], al
            0x00404626      0000           add byte [eax], al
            0x00404628      0000           add byte [eax], al
            0x0040462a      0000           add byte [eax], al
            0x0040462c      0000           add byte [eax], al
            0x0040462e      0000           add byte [eax], al
            0x00404630      0000           add byte [eax], al
            0x00404632      0000           add byte [eax], al
            0x00404634      0000           add byte [eax], al
            0x00404636      0000           add byte [eax], al
            0x00404638      0000           add byte [eax], al
            0x0040463a      0000           add byte [eax], al
            0x0040463c      0000           add byte [eax], al
            0x0040463e      0000           add byte [eax], al
            0x00404640      0000           add byte [eax], al
            0x00404642      0000           add byte [eax], al
            0x00404644      0000           add byte [eax], al
            0x00404646      0000           add byte [eax], al
            0x00404648      0000           add byte [eax], al
            0x0040464a      0000           add byte [eax], al
            0x0040464c      0000           add byte [eax], al
            0x0040464e      0000           add byte [eax], al
            0x00404650      0000           add byte [eax], al
            0x00404652      0000           add byte [eax], al
            0x00404654      0000           add byte [eax], al
            0x00404656      0000           add byte [eax], al
            0x00404658      0000           add byte [eax], al
            0x0040465a      0000           add byte [eax], al
            0x0040465c      0000           add byte [eax], al
            0x0040465e      0000           add byte [eax], al
            0x00404660      0000           add byte [eax], al
            0x00404662      0000           add byte [eax], al
            0x00404664      0000           add byte [eax], al
            0x00404666      0000           add byte [eax], al
            0x00404668      0000           add byte [eax], al
            0x0040466a      0000           add byte [eax], al
            0x0040466c      0000           add byte [eax], al
            0x0040466e      0000           add byte [eax], al
            0x00404670      0000           add byte [eax], al
            0x00404672      0000           add byte [eax], al
            0x00404674      0000           add byte [eax], al
            0x00404676      0000           add byte [eax], al
            0x00404678      0000           add byte [eax], al
            0x0040467a      0000           add byte [eax], al
            0x0040467c      0000           add byte [eax], al
            0x0040467e      0000           add byte [eax], al
            0x00404680      0000           add byte [eax], al
            0x00404682      0000           add byte [eax], al
            0x00404684      0000           add byte [eax], al
            0x00404686      0000           add byte [eax], al
            0x00404688      0000           add byte [eax], al
            0x0040468a      0000           add byte [eax], al
            0x0040468c      0000           add byte [eax], al
            0x0040468e      0000           add byte [eax], al
            0x00404690      0000           add byte [eax], al
            0x00404692      0000           add byte [eax], al
            0x00404694      0000           add byte [eax], al
            0x00404696      0000           add byte [eax], al
            0x00404698      0000           add byte [eax], al
            0x0040469a      0000           add byte [eax], al
            0x0040469c      0000           add byte [eax], al
            0x0040469e      0000           add byte [eax], al
            0x004046a0      0000           add byte [eax], al
            0x004046a2      0000           add byte [eax], al
            0x004046a4      0000           add byte [eax], al
            0x004046a6      0000           add byte [eax], al
            0x004046a8      0000           add byte [eax], al
            0x004046aa      0000           add byte [eax], al
            0x004046ac      0000           add byte [eax], al
            0x004046ae      0000           add byte [eax], al
            0x004046b0      0000           add byte [eax], al
            0x004046b2      0000           add byte [eax], al
            0x004046b4      0000           add byte [eax], al
            0x004046b6      0000           add byte [eax], al
            0x004046b8      0000           add byte [eax], al
            0x004046ba      0000           add byte [eax], al
            0x004046bc      0000           add byte [eax], al
            0x004046be      0000           add byte [eax], al
            0x004046c0      0000           add byte [eax], al
            0x004046c2      0000           add byte [eax], al
            0x004046c4      0000           add byte [eax], al
            0x004046c6      0000           add byte [eax], al
            0x004046c8      0000           add byte [eax], al
            0x004046ca      0000           add byte [eax], al
            0x004046cc      0000           add byte [eax], al
            0x004046ce      0000           add byte [eax], al
            0x004046d0      0000           add byte [eax], al
            0x004046d2      0000           add byte [eax], al
            0x004046d4      0000           add byte [eax], al
            0x004046d6      0000           add byte [eax], al
            0x004046d8      0000           add byte [eax], al
            0x004046da      0000           add byte [eax], al
            0x004046dc      0000           add byte [eax], al
            0x004046de      0000           add byte [eax], al
            0x004046e0      0000           add byte [eax], al
            0x004046e2      0000           add byte [eax], al
            0x004046e4      0000           add byte [eax], al
            0x004046e6      0000           add byte [eax], al
            0x004046e8      0000           add byte [eax], al
            0x004046ea      0000           add byte [eax], al
            0x004046ec      0000           add byte [eax], al
            0x004046ee      0000           add byte [eax], al
            0x004046f0      0000           add byte [eax], al
            0x004046f2      0000           add byte [eax], al
            0x004046f4      0000           add byte [eax], al
            0x004046f6      0000           add byte [eax], al
            0x004046f8      0000           add byte [eax], al
            0x004046fa      0000           add byte [eax], al
            0x004046fc      0000           add byte [eax], al
            0x004046fe      0000           add byte [eax], al
            0x00404700      0000           add byte [eax], al
            0x00404702      0000           add byte [eax], al
            0x00404704      0000           add byte [eax], al
            0x00404706      0000           add byte [eax], al
            0x00404708      0000           add byte [eax], al
            0x0040470a      0000           add byte [eax], al
            0x0040470c      0000           add byte [eax], al
            0x0040470e      0000           add byte [eax], al
            0x00404710      0000           add byte [eax], al
            0x00404712      0000           add byte [eax], al
            0x00404714      0000           add byte [eax], al
            0x00404716      0000           add byte [eax], al
            0x00404718      0000           add byte [eax], al
            0x0040471a      0000           add byte [eax], al
            0x0040471c      0000           add byte [eax], al
            0x0040471e      0000           add byte [eax], al
            0x00404720      0000           add byte [eax], al
            0x00404722      0000           add byte [eax], al
            0x00404724      0000           add byte [eax], al
            0x00404726      0000           add byte [eax], al
            0x00404728      0000           add byte [eax], al
            0x0040472a      0000           add byte [eax], al
            0x0040472c      0000           add byte [eax], al
            0x0040472e      0000           add byte [eax], al
            0x00404730      0000           add byte [eax], al
            0x00404732      0000           add byte [eax], al
            0x00404734      0000           add byte [eax], al
            0x00404736      0000           add byte [eax], al
            0x00404738      0000           add byte [eax], al
            0x0040473a      0000           add byte [eax], al
            0x0040473c      0000           add byte [eax], al
            0x0040473e      0000           add byte [eax], al
            0x00404740      0000           add byte [eax], al
            0x00404742      0000           add byte [eax], al
            0x00404744      0000           add byte [eax], al
            0x00404746      0000           add byte [eax], al
            0x00404748      0000           add byte [eax], al
            0x0040474a      0000           add byte [eax], al
            0x0040474c      0000           add byte [eax], al
            0x0040474e      0000           add byte [eax], al
            0x00404750      0000           add byte [eax], al
            0x00404752      0000           add byte [eax], al
            0x00404754      0000           add byte [eax], al
            0x00404756      0000           add byte [eax], al
            0x00404758      0000           add byte [eax], al
            0x0040475a      0000           add byte [eax], al
            0x0040475c      0000           add byte [eax], al
            0x0040475e      0000           add byte [eax], al
            0x00404760      0000           add byte [eax], al
            0x00404762      0000           add byte [eax], al
            0x00404764      0000           add byte [eax], al
            0x00404766      0000           add byte [eax], al
            0x00404768      0000           add byte [eax], al
            0x0040476a      0000           add byte [eax], al
            0x0040476c      0000           add byte [eax], al
            0x0040476e      0000           add byte [eax], al
            0x00404770      0000           add byte [eax], al
            0x00404772      0000           add byte [eax], al
            0x00404774      0000           add byte [eax], al
            0x00404776      0000           add byte [eax], al
            0x00404778      0000           add byte [eax], al
            0x0040477a      0000           add byte [eax], al
            0x0040477c      0000           add byte [eax], al
            0x0040477e      0000           add byte [eax], al
            0x00404780      0000           add byte [eax], al
            0x00404782      0000           add byte [eax], al
            0x00404784      0000           add byte [eax], al
            0x00404786      0000           add byte [eax], al
            0x00404788      0000           add byte [eax], al
            0x0040478a      0000           add byte [eax], al
            0x0040478c      0000           add byte [eax], al
            0x0040478e      0000           add byte [eax], al
            0x00404790      0000           add byte [eax], al
            0x00404792      0000           add byte [eax], al
            0x00404794      0000           add byte [eax], al
            0x00404796      0000           add byte [eax], al
            0x00404798      0000           add byte [eax], al
            0x0040479a      0000           add byte [eax], al
            0x0040479c      0000           add byte [eax], al
            0x0040479e      0000           add byte [eax], al
            0x004047a0      0000           add byte [eax], al
            0x004047a2      0000           add byte [eax], al
            0x004047a4      0000           add byte [eax], al
            0x004047a6      0000           add byte [eax], al
            0x004047a8      0000           add byte [eax], al
            0x004047aa      0000           add byte [eax], al
            0x004047ac      0000           add byte [eax], al
            0x004047ae      0000           add byte [eax], al
            0x004047b0      0000           add byte [eax], al
            0x004047b2      0000           add byte [eax], al
            0x004047b4      0000           add byte [eax], al
            0x004047b6      0000           add byte [eax], al
            0x004047b8      0000           add byte [eax], al
            0x004047ba      0000           add byte [eax], al
            0x004047bc      0000           add byte [eax], al
            0x004047be      0000           add byte [eax], al
            0x004047c0      0000           add byte [eax], al
            0x004047c2      0000           add byte [eax], al
            0x004047c4      0000           add byte [eax], al
            0x004047c6      0000           add byte [eax], al
            0x004047c8      0000           add byte [eax], al
            0x004047ca      0000           add byte [eax], al
            0x004047cc      0000           add byte [eax], al
            0x004047ce      0000           add byte [eax], al
            0x004047d0      0000           add byte [eax], al
            0x004047d2      0000           add byte [eax], al
            0x004047d4      0000           add byte [eax], al
            0x004047d6      0000           add byte [eax], al
            0x004047d8      0000           add byte [eax], al
            0x004047da      0000           add byte [eax], al
            0x004047dc      0000           add byte [eax], al
            0x004047de      0000           add byte [eax], al
            0x004047e0      0000           add byte [eax], al
            0x004047e2      0000           add byte [eax], al
            0x004047e4      0000           add byte [eax], al
            0x004047e6      0000           add byte [eax], al
            0x004047e8      0000           add byte [eax], al
            0x004047ea      0000           add byte [eax], al
            0x004047ec      0000           add byte [eax], al
            0x004047ee      0000           add byte [eax], al
            0x004047f0      0000           add byte [eax], al
            0x004047f2      0000           add byte [eax], al
            0x004047f4      0000           add byte [eax], al
            0x004047f6      0000           add byte [eax], al
            0x004047f8      0000           add byte [eax], al
            0x004047fa      0000           add byte [eax], al
            0x004047fc      0000           add byte [eax], al
            0x004047fe      0000           add byte [eax], al
            0x00404800      0000           add byte [eax], al
            0x00404802      0000           add byte [eax], al
            0x00404804      0000           add byte [eax], al
            0x00404806      0000           add byte [eax], al
            0x00404808      0000           add byte [eax], al
            0x0040480a      0000           add byte [eax], al
            0x0040480c      0000           add byte [eax], al
            0x0040480e      0000           add byte [eax], al
            0x00404810      0000           add byte [eax], al
            0x00404812      0000           add byte [eax], al
            0x00404814      0000           add byte [eax], al
            0x00404816      0000           add byte [eax], al
            0x00404818      0000           add byte [eax], al
            0x0040481a      0000           add byte [eax], al
            0x0040481c      0000           add byte [eax], al
            0x0040481e      0000           add byte [eax], al
            0x00404820      0000           add byte [eax], al
            0x00404822      0000           add byte [eax], al
            0x00404824      0000           add byte [eax], al
            0x00404826      0000           add byte [eax], al
            0x00404828      0000           add byte [eax], al
            0x0040482a      0000           add byte [eax], al
            0x0040482c      0000           add byte [eax], al
            0x0040482e      0000           add byte [eax], al
            0x00404830      0000           add byte [eax], al
            0x00404832      0000           add byte [eax], al
            0x00404834      0000           add byte [eax], al
            0x00404836      0000           add byte [eax], al
            0x00404838      0000           add byte [eax], al
            0x0040483a      0000           add byte [eax], al
            0x0040483c      0000           add byte [eax], al
            0x0040483e      0000           add byte [eax], al
            0x00404840      0000           add byte [eax], al
            0x00404842      0000           add byte [eax], al
            0x00404844      0000           add byte [eax], al
            0x00404846      0000           add byte [eax], al
            0x00404848      0000           add byte [eax], al
            0x0040484a      0000           add byte [eax], al
            0x0040484c      0000           add byte [eax], al
            0x0040484e      0000           add byte [eax], al
            0x00404850      0000           add byte [eax], al
            0x00404852      0000           add byte [eax], al
            0x00404854      0000           add byte [eax], al
            0x00404856      0000           add byte [eax], al
            0x00404858      0000           add byte [eax], al
            0x0040485a      0000           add byte [eax], al
            0x0040485c      0000           add byte [eax], al
            0x0040485e      0000           add byte [eax], al
            0x00404860      0000           add byte [eax], al
            0x00404862      0000           add byte [eax], al
            0x00404864      0000           add byte [eax], al
            0x00404866      0000           add byte [eax], al
            0x00404868      0000           add byte [eax], al
            0x0040486a      0000           add byte [eax], al
            0x0040486c      0000           add byte [eax], al
            0x0040486e      0000           add byte [eax], al
            0x00404870      0000           add byte [eax], al
            0x00404872      0000           add byte [eax], al
            0x00404874      0000           add byte [eax], al
            0x00404876      0000           add byte [eax], al
            0x00404878      0000           add byte [eax], al
            0x0040487a      0000           add byte [eax], al
            0x0040487c      0000           add byte [eax], al
            0x0040487e      0000           add byte [eax], al
            0x00404880      0000           add byte [eax], al
            0x00404882      0000           add byte [eax], al
            0x00404884      0000           add byte [eax], al
            0x00404886      0000           add byte [eax], al
            0x00404888      0000           add byte [eax], al
            0x0040488a      0000           add byte [eax], al
            0x0040488c      0000           add byte [eax], al
            0x0040488e      0000           add byte [eax], al
            0x00404890      0000           add byte [eax], al
            0x00404892      0000           add byte [eax], al
            0x00404894      0000           add byte [eax], al
            0x00404896      0000           add byte [eax], al
            0x00404898      0000           add byte [eax], al
            0x0040489a      0000           add byte [eax], al
            0x0040489c      0000           add byte [eax], al
            0x0040489e      0000           add byte [eax], al
            0x004048a0      0000           add byte [eax], al
            0x004048a2      0000           add byte [eax], al
            0x004048a4      0000           add byte [eax], al
            0x004048a6      0000           add byte [eax], al
            0x004048a8      0000           add byte [eax], al
            0x004048aa      0000           add byte [eax], al
            0x004048ac      0000           add byte [eax], al
            0x004048ae      0000           add byte [eax], al
            0x004048b0      0000           add byte [eax], al
            0x004048b2      0000           add byte [eax], al
            0x004048b4      0000           add byte [eax], al
            0x004048b6      0000           add byte [eax], al
            0x004048b8      0000           add byte [eax], al
            0x004048ba      0000           add byte [eax], al
            0x004048bc      0000           add byte [eax], al
            0x004048be      0000           add byte [eax], al
            0x004048c0      0000           add byte [eax], al
            0x004048c2      0000           add byte [eax], al
            0x004048c4      0000           add byte [eax], al
            0x004048c6      0000           add byte [eax], al
            0x004048c8      0000           add byte [eax], al
            0x004048ca      0000           add byte [eax], al
            0x004048cc      0000           add byte [eax], al
            0x004048ce      0000           add byte [eax], al
            0x004048d0      0000           add byte [eax], al
            0x004048d2      0000           add byte [eax], al
            0x004048d4      0000           add byte [eax], al
            0x004048d6      0000           add byte [eax], al
            0x004048d8      0000           add byte [eax], al
            0x004048da      0000           add byte [eax], al
            0x004048dc      0000           add byte [eax], al
            0x004048de      0000           add byte [eax], al
            0x004048e0      0000           add byte [eax], al
            0x004048e2      0000           add byte [eax], al
            0x004048e4      0000           add byte [eax], al
            0x004048e6      0000           add byte [eax], al
            0x004048e8      0000           add byte [eax], al
            0x004048ea      0000           add byte [eax], al
            0x004048ec      0000           add byte [eax], al
            0x004048ee      0000           add byte [eax], al
            0x004048f0      0000           add byte [eax], al
            0x004048f2      0000           add byte [eax], al
            0x004048f4      0000           add byte [eax], al
            0x004048f6      0000           add byte [eax], al
            0x004048f8      0000           add byte [eax], al
            0x004048fa      0000           add byte [eax], al
            0x004048fc      0000           add byte [eax], al
            0x004048fe      0000           add byte [eax], al
            0x00404900      0000           add byte [eax], al
            0x00404902      0000           add byte [eax], al
            0x00404904      0000           add byte [eax], al
            0x00404906      0000           add byte [eax], al
            0x00404908      0000           add byte [eax], al
            0x0040490a      0000           add byte [eax], al
            0x0040490c      0000           add byte [eax], al
            0x0040490e      0000           add byte [eax], al
            0x00404910      0000           add byte [eax], al
            0x00404912      0000           add byte [eax], al
            0x00404914      0000           add byte [eax], al
            0x00404916      0000           add byte [eax], al
            0x00404918      0000           add byte [eax], al
            0x0040491a      0000           add byte [eax], al
            0x0040491c      0000           add byte [eax], al
            0x0040491e      0000           add byte [eax], al
            0x00404920      0000           add byte [eax], al
            0x00404922      0000           add byte [eax], al
            0x00404924      0000           add byte [eax], al
            0x00404926      0000           add byte [eax], al
            0x00404928      0000           add byte [eax], al
            0x0040492a      0000           add byte [eax], al
            0x0040492c      0000           add byte [eax], al
            0x0040492e      0000           add byte [eax], al
            0x00404930      0000           add byte [eax], al
            0x00404932      0000           add byte [eax], al
            0x00404934      0000           add byte [eax], al
            0x00404936      0000           add byte [eax], al
            0x00404938      0000           add byte [eax], al
            0x0040493a      0000           add byte [eax], al
            0x0040493c      0000           add byte [eax], al
            0x0040493e      0000           add byte [eax], al
            0x00404940      0000           add byte [eax], al
            0x00404942      0000           add byte [eax], al
            0x00404944      0000           add byte [eax], al
            0x00404946      0000           add byte [eax], al
            0x00404948      0000           add byte [eax], al
            0x0040494a      0000           add byte [eax], al
            0x0040494c      0000           add byte [eax], al
            0x0040494e      0000           add byte [eax], al
            0x00404950      0000           add byte [eax], al
            0x00404952      0000           add byte [eax], al
            0x00404954      0000           add byte [eax], al
            0x00404956      0000           add byte [eax], al
            0x00404958      0000           add byte [eax], al
            0x0040495a      0000           add byte [eax], al
            0x0040495c      0000           add byte [eax], al
            0x0040495e      0000           add byte [eax], al
            0x00404960      0000           add byte [eax], al
            0x00404962      0000           add byte [eax], al
            0x00404964      0000           add byte [eax], al
            0x00404966      0000           add byte [eax], al
            0x00404968      0000           add byte [eax], al
            0x0040496a      0000           add byte [eax], al
            0x0040496c      0000           add byte [eax], al
            0x0040496e      0000           add byte [eax], al
            0x00404970      0000           add byte [eax], al
            0x00404972      0000           add byte [eax], al
            0x00404974      0000           add byte [eax], al
            0x00404976      0000           add byte [eax], al
            0x00404978      0000           add byte [eax], al
            0x0040497a      0000           add byte [eax], al
            0x0040497c      0000           add byte [eax], al
            0x0040497e      0000           add byte [eax], al
            0x00404980      0000           add byte [eax], al
            0x00404982      0000           add byte [eax], al
            0x00404984      0000           add byte [eax], al
            0x00404986      0000           add byte [eax], al
            0x00404988      0000           add byte [eax], al
            0x0040498a      0000           add byte [eax], al
            0x0040498c      0000           add byte [eax], al
            0x0040498e      0000           add byte [eax], al
            0x00404990      0000           add byte [eax], al
            0x00404992      0000           add byte [eax], al
            0x00404994      0000           add byte [eax], al
            0x00404996      0000           add byte [eax], al
            0x00404998      0000           add byte [eax], al
            0x0040499a      0000           add byte [eax], al
            0x0040499c      0000           add byte [eax], al
            0x0040499e      0000           add byte [eax], al
            0x004049a0      0000           add byte [eax], al
            0x004049a2      0000           add byte [eax], al
            0x004049a4      0000           add byte [eax], al
            0x004049a6      0000           add byte [eax], al
            0x004049a8      0000           add byte [eax], al
            0x004049aa      0000           add byte [eax], al
            0x004049ac      0000           add byte [eax], al
            0x004049ae      0000           add byte [eax], al
            0x004049b0      0000           add byte [eax], al
            0x004049b2      0000           add byte [eax], al
            0x004049b4      0000           add byte [eax], al
            0x004049b6      0000           add byte [eax], al
            0x004049b8      0000           add byte [eax], al
            0x004049ba      0000           add byte [eax], al
            0x004049bc      0000           add byte [eax], al
            0x004049be      0000           add byte [eax], al
            0x004049c0      0000           add byte [eax], al
            0x004049c2      0000           add byte [eax], al
            0x004049c4      0000           add byte [eax], al
            0x004049c6      0000           add byte [eax], al
            0x004049c8      0000           add byte [eax], al
            0x004049ca      0000           add byte [eax], al
            0x004049cc      0000           add byte [eax], al
            0x004049ce      0000           add byte [eax], al
            0x004049d0      0000           add byte [eax], al
            0x004049d2      0000           add byte [eax], al
            0x004049d4      0000           add byte [eax], al
            0x004049d6      0000           add byte [eax], al
            0x004049d8      0000           add byte [eax], al
            0x004049da      0000           add byte [eax], al
            0x004049dc      0000           add byte [eax], al
            0x004049de      0000           add byte [eax], al
            0x004049e0      0000           add byte [eax], al
            0x004049e2      0000           add byte [eax], al
            0x004049e4      0000           add byte [eax], al
            0x004049e6      0000           add byte [eax], al
            0x004049e8      0000           add byte [eax], al
            0x004049ea      0000           add byte [eax], al
            0x004049ec      0000           add byte [eax], al
            0x004049ee      0000           add byte [eax], al
            0x004049f0      0000           add byte [eax], al
            0x004049f2      0000           add byte [eax], al
            0x004049f4      0000           add byte [eax], al
            0x004049f6      0000           add byte [eax], al
            0x004049f8      0000           add byte [eax], al
            0x004049fa      0000           add byte [eax], al
            0x004049fc      0000           add byte [eax], al
            0x004049fe      0000           add byte [eax], al
            0x00404a00      0000           add byte [eax], al
            0x00404a02      0000           add byte [eax], al
            0x00404a04      0000           add byte [eax], al
            0x00404a06      0000           add byte [eax], al
            0x00404a08      0000           add byte [eax], al
            0x00404a0a      0000           add byte [eax], al
            0x00404a0c      0000           add byte [eax], al
            0x00404a0e      0000           add byte [eax], al
            0x00404a10      0000           add byte [eax], al
            0x00404a12      0000           add byte [eax], al
            0x00404a14      0000           add byte [eax], al
            0x00404a16      0000           add byte [eax], al
            0x00404a18      0000           add byte [eax], al
            0x00404a1a      0000           add byte [eax], al
            0x00404a1c      0000           add byte [eax], al
            0x00404a1e      0000           add byte [eax], al
            0x00404a20      0000           add byte [eax], al
            0x00404a22      0000           add byte [eax], al
            0x00404a24      0000           add byte [eax], al
            0x00404a26      0000           add byte [eax], al
            0x00404a28      0000           add byte [eax], al
            0x00404a2a      0000           add byte [eax], al
            0x00404a2c      0000           add byte [eax], al
            0x00404a2e      0000           add byte [eax], al
            0x00404a30      0000           add byte [eax], al
            0x00404a32      0000           add byte [eax], al
            0x00404a34      0000           add byte [eax], al
            0x00404a36      0000           add byte [eax], al
            0x00404a38      0000           add byte [eax], al
            0x00404a3a      0000           add byte [eax], al
            0x00404a3c      0000           add byte [eax], al
            0x00404a3e      0000           add byte [eax], al
            0x00404a40      0000           add byte [eax], al
            0x00404a42      0000           add byte [eax], al
            0x00404a44      0000           add byte [eax], al
            0x00404a46      0000           add byte [eax], al
            0x00404a48      0000           add byte [eax], al
            0x00404a4a      0000           add byte [eax], al
            0x00404a4c      0000           add byte [eax], al
            0x00404a4e      0000           add byte [eax], al
            0x00404a50      0000           add byte [eax], al
            0x00404a52      0000           add byte [eax], al
            0x00404a54      0000           add byte [eax], al
            0x00404a56      0000           add byte [eax], al
            0x00404a58      0000           add byte [eax], al
            0x00404a5a      0000           add byte [eax], al
            0x00404a5c      0000           add byte [eax], al
            0x00404a5e      0000           add byte [eax], al
            0x00404a60      0000           add byte [eax], al
            0x00404a62      0000           add byte [eax], al
            0x00404a64      0000           add byte [eax], al
            0x00404a66      0000           add byte [eax], al
            0x00404a68      0000           add byte [eax], al
            0x00404a6a      0000           add byte [eax], al
            0x00404a6c      0000           add byte [eax], al
            0x00404a6e      0000           add byte [eax], al
            0x00404a70      0000           add byte [eax], al
            0x00404a72      0000           add byte [eax], al
            0x00404a74      0000           add byte [eax], al
            0x00404a76      0000           add byte [eax], al
            0x00404a78      0000           add byte [eax], al
            0x00404a7a      0000           add byte [eax], al
            0x00404a7c      0000           add byte [eax], al
            0x00404a7e      0000           add byte [eax], al
            0x00404a80      0000           add byte [eax], al
            0x00404a82      0000           add byte [eax], al
            0x00404a84      0000           add byte [eax], al
            0x00404a86      0000           add byte [eax], al
            0x00404a88      0000           add byte [eax], al
            0x00404a8a      0000           add byte [eax], al
            0x00404a8c      0000           add byte [eax], al
            0x00404a8e      0000           add byte [eax], al
            0x00404a90      0000           add byte [eax], al
            0x00404a92      0000           add byte [eax], al
            0x00404a94      0000           add byte [eax], al
            0x00404a96      0000           add byte [eax], al
            0x00404a98      0000           add byte [eax], al
            0x00404a9a      0000           add byte [eax], al
            0x00404a9c      0000           add byte [eax], al
            0x00404a9e      0000           add byte [eax], al
            0x00404aa0      0000           add byte [eax], al
            0x00404aa2      0000           add byte [eax], al
            0x00404aa4      0000           add byte [eax], al
            0x00404aa6      0000           add byte [eax], al
            0x00404aa8      0000           add byte [eax], al
            0x00404aaa      0000           add byte [eax], al
            0x00404aac      0000           add byte [eax], al
            0x00404aae      0000           add byte [eax], al
            0x00404ab0      0000           add byte [eax], al
            0x00404ab2      0000           add byte [eax], al
            0x00404ab4      0000           add byte [eax], al
            0x00404ab6      0000           add byte [eax], al
            0x00404ab8      0000           add byte [eax], al
            0x00404aba      0000           add byte [eax], al
            0x00404abc      0000           add byte [eax], al
            0x00404abe      0000           add byte [eax], al
            0x00404ac0      0000           add byte [eax], al
            0x00404ac2      0000           add byte [eax], al
            0x00404ac4      0000           add byte [eax], al
            0x00404ac6      0000           add byte [eax], al
            0x00404ac8      0000           add byte [eax], al
            0x00404aca      0000           add byte [eax], al
            0x00404acc      0000           add byte [eax], al
            0x00404ace      0000           add byte [eax], al
            0x00404ad0      0000           add byte [eax], al
            0x00404ad2      0000           add byte [eax], al
            0x00404ad4      0000           add byte [eax], al
            0x00404ad6      0000           add byte [eax], al
            0x00404ad8      0000           add byte [eax], al
            0x00404ada      0000           add byte [eax], al
            0x00404adc      0000           add byte [eax], al
            0x00404ade      0000           add byte [eax], al
            0x00404ae0      0000           add byte [eax], al
            0x00404ae2      0000           add byte [eax], al
            0x00404ae4      0000           add byte [eax], al
            0x00404ae6      0000           add byte [eax], al
            0x00404ae8      0000           add byte [eax], al
            0x00404aea      0000           add byte [eax], al
            0x00404aec      0000           add byte [eax], al
            0x00404aee      0000           add byte [eax], al
            0x00404af0      0000           add byte [eax], al
            0x00404af2      0000           add byte [eax], al
            0x00404af4      0000           add byte [eax], al
            0x00404af6      0000           add byte [eax], al
            0x00404af8      0000           add byte [eax], al
            0x00404afa      0000           add byte [eax], al
            0x00404afc      0000           add byte [eax], al
            0x00404afe      0000           add byte [eax], al
            0x00404b00      0000           add byte [eax], al
            0x00404b02      0000           add byte [eax], al
            0x00404b04      0000           add byte [eax], al
            0x00404b06      0000           add byte [eax], al
            0x00404b08      0000           add byte [eax], al
            0x00404b0a      0000           add byte [eax], al
            0x00404b0c      0000           add byte [eax], al
            0x00404b0e      0000           add byte [eax], al
            0x00404b10      0000           add byte [eax], al
            0x00404b12      0000           add byte [eax], al
            0x00404b14      0000           add byte [eax], al
            0x00404b16      0000           add byte [eax], al
            0x00404b18      0000           add byte [eax], al
            0x00404b1a      0000           add byte [eax], al
            0x00404b1c      0000           add byte [eax], al
            0x00404b1e      0000           add byte [eax], al
            0x00404b20      0000           add byte [eax], al
            0x00404b22      0000           add byte [eax], al
            0x00404b24      0000           add byte [eax], al
            0x00404b26      0000           add byte [eax], al
            0x00404b28      0000           add byte [eax], al
            0x00404b2a      0000           add byte [eax], al
            0x00404b2c      0000           add byte [eax], al
            0x00404b2e      0000           add byte [eax], al
            0x00404b30      0000           add byte [eax], al
            0x00404b32      0000           add byte [eax], al
            0x00404b34      0000           add byte [eax], al
            0x00404b36      0000           add byte [eax], al
            0x00404b38      0000           add byte [eax], al
            0x00404b3a      0000           add byte [eax], al
            0x00404b3c      0000           add byte [eax], al
            0x00404b3e      0000           add byte [eax], al
            0x00404b40      0000           add byte [eax], al
            0x00404b42      0000           add byte [eax], al
            0x00404b44      0000           add byte [eax], al
            0x00404b46      0000           add byte [eax], al
            0x00404b48      0000           add byte [eax], al
            0x00404b4a      0000           add byte [eax], al
            0x00404b4c      0000           add byte [eax], al
            0x00404b4e      0000           add byte [eax], al
            0x00404b50      0000           add byte [eax], al
            0x00404b52      0000           add byte [eax], al
            0x00404b54      0000           add byte [eax], al
            0x00404b56      0000           add byte [eax], al
            0x00404b58      0000           add byte [eax], al
            0x00404b5a      0000           add byte [eax], al
            0x00404b5c      0000           add byte [eax], al
            0x00404b5e      0000           add byte [eax], al
            0x00404b60      0000           add byte [eax], al
            0x00404b62      0000           add byte [eax], al
            0x00404b64      0000           add byte [eax], al
            0x00404b66      0000           add byte [eax], al
            0x00404b68      0000           add byte [eax], al
            0x00404b6a      0000           add byte [eax], al
            0x00404b6c      0000           add byte [eax], al
            0x00404b6e      0000           add byte [eax], al
            0x00404b70      0000           add byte [eax], al
            0x00404b72      0000           add byte [eax], al
            0x00404b74      0000           add byte [eax], al
            0x00404b76      0000           add byte [eax], al
            0x00404b78      0000           add byte [eax], al
            0x00404b7a      0000           add byte [eax], al
            0x00404b7c      0000           add byte [eax], al
            0x00404b7e      0000           add byte [eax], al
            0x00404b80      0000           add byte [eax], al
            0x00404b82      0000           add byte [eax], al
            0x00404b84      0000           add byte [eax], al
            0x00404b86      0000           add byte [eax], al
            0x00404b88      0000           add byte [eax], al
            0x00404b8a      0000           add byte [eax], al
            0x00404b8c      0000           add byte [eax], al
            0x00404b8e      0000           add byte [eax], al
            0x00404b90      0000           add byte [eax], al
            0x00404b92      0000           add byte [eax], al
            0x00404b94      0000           add byte [eax], al
            0x00404b96      0000           add byte [eax], al
            0x00404b98      0000           add byte [eax], al
            0x00404b9a      0000           add byte [eax], al
            0x00404b9c      0000           add byte [eax], al
            0x00404b9e      0000           add byte [eax], al
            0x00404ba0      0000           add byte [eax], al
            0x00404ba2      0000           add byte [eax], al
            0x00404ba4      0000           add byte [eax], al
            0x00404ba6      0000           add byte [eax], al
            0x00404ba8      0000           add byte [eax], al
            0x00404baa      0000           add byte [eax], al
            0x00404bac      0000           add byte [eax], al
            0x00404bae      0000           add byte [eax], al
            0x00404bb0      0000           add byte [eax], al
            0x00404bb2      0000           add byte [eax], al
            0x00404bb4      0000           add byte [eax], al
            0x00404bb6      0000           add byte [eax], al
            0x00404bb8      0000           add byte [eax], al
            0x00404bba      0000           add byte [eax], al
            0x00404bbc      0000           add byte [eax], al
            0x00404bbe      0000           add byte [eax], al
            0x00404bc0      0000           add byte [eax], al
            0x00404bc2      0000           add byte [eax], al
            0x00404bc4      0000           add byte [eax], al
            0x00404bc6      0000           add byte [eax], al
            0x00404bc8      0000           add byte [eax], al
            0x00404bca      0000           add byte [eax], al
            0x00404bcc      0000           add byte [eax], al
            0x00404bce      0000           add byte [eax], al
            0x00404bd0      0000           add byte [eax], al
            0x00404bd2      0000           add byte [eax], al
            0x00404bd4      0000           add byte [eax], al
            0x00404bd6      0000           add byte [eax], al
            0x00404bd8      0000           add byte [eax], al
            0x00404bda      0000           add byte [eax], al
            0x00404bdc      0000           add byte [eax], al
            0x00404bde      0000           add byte [eax], al
            0x00404be0      0000           add byte [eax], al
            0x00404be2      0000           add byte [eax], al
            0x00404be4      0000           add byte [eax], al
            0x00404be6      0000           add byte [eax], al
            0x00404be8      0000           add byte [eax], al
            0x00404bea      0000           add byte [eax], al
            0x00404bec      0000           add byte [eax], al
            0x00404bee      0000           add byte [eax], al
            0x00404bf0      0000           add byte [eax], al
            0x00404bf2      0000           add byte [eax], al
            0x00404bf4      0000           add byte [eax], al
            0x00404bf6      0000           add byte [eax], al
            0x00404bf8      0000           add byte [eax], al
            0x00404bfa      0000           add byte [eax], al
            0x00404bfc      0000           add byte [eax], al
            0x00404bfe      0000           add byte [eax], al
            0x00404c00      0000           add byte [eax], al
            0x00404c02      0000           add byte [eax], al
            0x00404c04      0000           add byte [eax], al
            0x00404c06      0000           add byte [eax], al
            0x00404c08      0000           add byte [eax], al
            0x00404c0a      0000           add byte [eax], al
            0x00404c0c      0000           add byte [eax], al
            0x00404c0e      0000           add byte [eax], al
            0x00404c10      0000           add byte [eax], al
            0x00404c12      0000           add byte [eax], al
            0x00404c14      0000           add byte [eax], al
            0x00404c16      0000           add byte [eax], al
            0x00404c18      0000           add byte [eax], al
            0x00404c1a      0000           add byte [eax], al
            0x00404c1c      0000           add byte [eax], al
            0x00404c1e      0000           add byte [eax], al
            0x00404c20      0000           add byte [eax], al
            0x00404c22      0000           add byte [eax], al
            0x00404c24      0000           add byte [eax], al
            0x00404c26      0000           add byte [eax], al
            0x00404c28      0000           add byte [eax], al
            0x00404c2a      0000           add byte [eax], al
            0x00404c2c      0000           add byte [eax], al
            0x00404c2e      0000           add byte [eax], al
            0x00404c30      0000           add byte [eax], al
            0x00404c32      0000           add byte [eax], al
            0x00404c34      0000           add byte [eax], al
            0x00404c36      0000           add byte [eax], al
            0x00404c38      0000           add byte [eax], al
            0x00404c3a      0000           add byte [eax], al
            0x00404c3c      0000           add byte [eax], al
            0x00404c3e      0000           add byte [eax], al
            0x00404c40      0000           add byte [eax], al
            0x00404c42      0000           add byte [eax], al
            0x00404c44      0000           add byte [eax], al
            0x00404c46      0000           add byte [eax], al
            0x00404c48      0000           add byte [eax], al
            0x00404c4a      0000           add byte [eax], al
            0x00404c4c      0000           add byte [eax], al
            0x00404c4e      0000           add byte [eax], al
            0x00404c50      0000           add byte [eax], al
            0x00404c52      0000           add byte [eax], al
            0x00404c54      0000           add byte [eax], al
            0x00404c56      0000           add byte [eax], al
            0x00404c58      0000           add byte [eax], al
            0x00404c5a      0000           add byte [eax], al
            0x00404c5c      0000           add byte [eax], al
            0x00404c5e      0000           add byte [eax], al
            0x00404c60      0000           add byte [eax], al
            0x00404c62      0000           add byte [eax], al
            0x00404c64      0000           add byte [eax], al
            0x00404c66      0000           add byte [eax], al
            0x00404c68      0000           add byte [eax], al
            0x00404c6a      0000           add byte [eax], al
            0x00404c6c      0000           add byte [eax], al
            0x00404c6e      0000           add byte [eax], al
            0x00404c70      0000           add byte [eax], al
            0x00404c72      0000           add byte [eax], al
            0x00404c74      0000           add byte [eax], al
            0x00404c76      0000           add byte [eax], al
            0x00404c78      0000           add byte [eax], al
            0x00404c7a      0000           add byte [eax], al
            0x00404c7c      0000           add byte [eax], al
            0x00404c7e      0000           add byte [eax], al
            0x00404c80      0000           add byte [eax], al
            0x00404c82      0000           add byte [eax], al
            0x00404c84      0000           add byte [eax], al
            0x00404c86      0000           add byte [eax], al
            0x00404c88      0000           add byte [eax], al
            0x00404c8a      0000           add byte [eax], al
            0x00404c8c      0000           add byte [eax], al
            0x00404c8e      0000           add byte [eax], al
            0x00404c90      0000           add byte [eax], al
            0x00404c92      0000           add byte [eax], al
            0x00404c94      0000           add byte [eax], al
            0x00404c96      0000           add byte [eax], al
            0x00404c98      0000           add byte [eax], al
            0x00404c9a      0000           add byte [eax], al
            0x00404c9c      0000           add byte [eax], al
            0x00404c9e      0000           add byte [eax], al
            0x00404ca0      0000           add byte [eax], al
            0x00404ca2      0000           add byte [eax], al
            0x00404ca4      0000           add byte [eax], al
            0x00404ca6      0000           add byte [eax], al
            0x00404ca8      0000           add byte [eax], al
            0x00404caa      0000           add byte [eax], al
            0x00404cac      0000           add byte [eax], al
            0x00404cae      0000           add byte [eax], al
            0x00404cb0      0000           add byte [eax], al
            0x00404cb2      0000           add byte [eax], al
            0x00404cb4      0000           add byte [eax], al
            0x00404cb6      0000           add byte [eax], al
            0x00404cb8      0000           add byte [eax], al
            0x00404cba      0000           add byte [eax], al
            0x00404cbc      0000           add byte [eax], al
            0x00404cbe      0000           add byte [eax], al
            0x00404cc0      0000           add byte [eax], al
            0x00404cc2      0000           add byte [eax], al
            0x00404cc4      0000           add byte [eax], al
            0x00404cc6      0000           add byte [eax], al
            0x00404cc8      0000           add byte [eax], al
            0x00404cca      0000           add byte [eax], al
            0x00404ccc      0000           add byte [eax], al
            0x00404cce      0000           add byte [eax], al
            0x00404cd0      0000           add byte [eax], al
            0x00404cd2      0000           add byte [eax], al
            0x00404cd4      0000           add byte [eax], al
            0x00404cd6      0000           add byte [eax], al
            0x00404cd8      0000           add byte [eax], al
            0x00404cda      0000           add byte [eax], al
            0x00404cdc      0000           add byte [eax], al
            0x00404cde      0000           add byte [eax], al
            0x00404ce0      0000           add byte [eax], al
            0x00404ce2      0000           add byte [eax], al
            0x00404ce4      0000           add byte [eax], al
            0x00404ce6      0000           add byte [eax], al
            0x00404ce8      0000           add byte [eax], al
            0x00404cea      0000           add byte [eax], al
            0x00404cec      0000           add byte [eax], al
            0x00404cee      0000           add byte [eax], al
            0x00404cf0      0000           add byte [eax], al
            0x00404cf2      0000           add byte [eax], al
            0x00404cf4      0000           add byte [eax], al
            0x00404cf6      0000           add byte [eax], al
            0x00404cf8      0000           add byte [eax], al
            0x00404cfa      0000           add byte [eax], al
            0x00404cfc      0000           add byte [eax], al
            0x00404cfe      0000           add byte [eax], al
            0x00404d00      0000           add byte [eax], al
            0x00404d02      0000           add byte [eax], al
            0x00404d04      0000           add byte [eax], al
            0x00404d06      0000           add byte [eax], al
            0x00404d08      0000           add byte [eax], al
            0x00404d0a      0000           add byte [eax], al
            0x00404d0c      0000           add byte [eax], al
            0x00404d0e      0000           add byte [eax], al
            0x00404d10      0000           add byte [eax], al
            0x00404d12      0000           add byte [eax], al
            0x00404d14      0000           add byte [eax], al
            0x00404d16      0000           add byte [eax], al
            0x00404d18      0000           add byte [eax], al
            0x00404d1a      0000           add byte [eax], al
            0x00404d1c      0000           add byte [eax], al
            0x00404d1e      0000           add byte [eax], al
            0x00404d20      0000           add byte [eax], al
            0x00404d22      0000           add byte [eax], al
            0x00404d24      0000           add byte [eax], al
            0x00404d26      0000           add byte [eax], al
            0x00404d28      0000           add byte [eax], al
            0x00404d2a      0000           add byte [eax], al
            0x00404d2c      0000           add byte [eax], al
            0x00404d2e      0000           add byte [eax], al
            0x00404d30      0000           add byte [eax], al
            0x00404d32      0000           add byte [eax], al
            0x00404d34      0000           add byte [eax], al
            0x00404d36      0000           add byte [eax], al
            0x00404d38      0000           add byte [eax], al
            0x00404d3a      0000           add byte [eax], al
            0x00404d3c      0000           add byte [eax], al
            0x00404d3e      0000           add byte [eax], al
            0x00404d40      0000           add byte [eax], al
            0x00404d42      0000           add byte [eax], al
            0x00404d44      0000           add byte [eax], al
            0x00404d46      0000           add byte [eax], al
            0x00404d48      0000           add byte [eax], al
            0x00404d4a      0000           add byte [eax], al
            0x00404d4c      0000           add byte [eax], al
            0x00404d4e      0000           add byte [eax], al
            0x00404d50      0000           add byte [eax], al
            0x00404d52      0000           add byte [eax], al
            0x00404d54      0000           add byte [eax], al
            0x00404d56      0000           add byte [eax], al
            0x00404d58      0000           add byte [eax], al
            0x00404d5a      0000           add byte [eax], al
            0x00404d5c      0000           add byte [eax], al
            0x00404d5e      0000           add byte [eax], al
            0x00404d60      0000           add byte [eax], al
            0x00404d62      0000           add byte [eax], al
            0x00404d64      0000           add byte [eax], al
            0x00404d66      0000           add byte [eax], al
            0x00404d68      0000           add byte [eax], al
            0x00404d6a      0000           add byte [eax], al
            0x00404d6c      0000           add byte [eax], al
            0x00404d6e      0000           add byte [eax], al
            0x00404d70      0000           add byte [eax], al
            0x00404d72      0000           add byte [eax], al
            0x00404d74      0000           add byte [eax], al
            0x00404d76      0000           add byte [eax], al
            0x00404d78      0000           add byte [eax], al
            0x00404d7a      0000           add byte [eax], al
            0x00404d7c      0000           add byte [eax], al
            0x00404d7e      0000           add byte [eax], al
            0x00404d80      0000           add byte [eax], al
            0x00404d82      0000           add byte [eax], al
            0x00404d84      0000           add byte [eax], al
            0x00404d86      0000           add byte [eax], al
            0x00404d88      0000           add byte [eax], al
            0x00404d8a      0000           add byte [eax], al
            0x00404d8c      0000           add byte [eax], al
            0x00404d8e      0000           add byte [eax], al
            0x00404d90      0000           add byte [eax], al
            0x00404d92      0000           add byte [eax], al
            0x00404d94      0000           add byte [eax], al
            0x00404d96      0000           add byte [eax], al
            0x00404d98      0000           add byte [eax], al
            0x00404d9a      0000           add byte [eax], al
            0x00404d9c      0000           add byte [eax], al
            0x00404d9e      0000           add byte [eax], al
            0x00404da0      0000           add byte [eax], al
            0x00404da2      0000           add byte [eax], al
            0x00404da4      0000           add byte [eax], al
            0x00404da6      0000           add byte [eax], al
            0x00404da8      0000           add byte [eax], al
            0x00404daa      0000           add byte [eax], al
            0x00404dac      0000           add byte [eax], al
            0x00404dae      0000           add byte [eax], al
            0x00404db0      0000           add byte [eax], al
            0x00404db2      0000           add byte [eax], al
            0x00404db4      0000           add byte [eax], al
            0x00404db6      0000           add byte [eax], al
            0x00404db8      0000           add byte [eax], al
            0x00404dba      0000           add byte [eax], al
            0x00404dbc      0000           add byte [eax], al
            0x00404dbe      0000           add byte [eax], al
            0x00404dc0      0000           add byte [eax], al
            0x00404dc2      0000           add byte [eax], al
            0x00404dc4      0000           add byte [eax], al
            0x00404dc6      0000           add byte [eax], al
            0x00404dc8      0000           add byte [eax], al
            0x00404dca      0000           add byte [eax], al
            0x00404dcc      0000           add byte [eax], al
            0x00404dce      0000           add byte [eax], al
            0x00404dd0      0000           add byte [eax], al
            0x00404dd2      0000           add byte [eax], al
            0x00404dd4      0000           add byte [eax], al
            0x00404dd6      0000           add byte [eax], al
            0x00404dd8      0000           add byte [eax], al
            0x00404dda      0000           add byte [eax], al
            0x00404ddc      0000           add byte [eax], al
            0x00404dde      0000           add byte [eax], al
            0x00404de0      0000           add byte [eax], al
            0x00404de2      0000           add byte [eax], al
            0x00404de4      0000           add byte [eax], al
            0x00404de6      0000           add byte [eax], al
            0x00404de8      0000           add byte [eax], al
            0x00404dea      0000           add byte [eax], al
            0x00404dec      0000           add byte [eax], al
            0x00404dee      0000           add byte [eax], al
            0x00404df0      0000           add byte [eax], al
            0x00404df2      0000           add byte [eax], al
            0x00404df4      0000           add byte [eax], al
            0x00404df6      0000           add byte [eax], al
            0x00404df8      0000           add byte [eax], al
            0x00404dfa      0000           add byte [eax], al
            0x00404dfc      0000           add byte [eax], al
            0x00404dfe      0000           add byte [eax], al
            0x00404e00      0000           add byte [eax], al
            0x00404e02      0000           add byte [eax], al
            0x00404e04      0000           add byte [eax], al
            0x00404e06      0000           add byte [eax], al
            0x00404e08      0000           add byte [eax], al
            0x00404e0a      0000           add byte [eax], al
            0x00404e0c      0000           add byte [eax], al
            0x00404e0e      0000           add byte [eax], al
            0x00404e10      0000           add byte [eax], al
            0x00404e12      0000           add byte [eax], al
            0x00404e14      0000           add byte [eax], al
            0x00404e16      0000           add byte [eax], al
            0x00404e18      0000           add byte [eax], al
            0x00404e1a      0000           add byte [eax], al
            0x00404e1c      0000           add byte [eax], al
            0x00404e1e      0000           add byte [eax], al
            0x00404e20      0000           add byte [eax], al
            0x00404e22      0000           add byte [eax], al
            0x00404e24      0000           add byte [eax], al
            0x00404e26      0000           add byte [eax], al
            0x00404e28      0000           add byte [eax], al
            0x00404e2a      0000           add byte [eax], al
            0x00404e2c      0000           add byte [eax], al
            0x00404e2e      0000           add byte [eax], al
            0x00404e30      0000           add byte [eax], al
            0x00404e32      0000           add byte [eax], al
            0x00404e34      0000           add byte [eax], al
            0x00404e36      0000           add byte [eax], al
            0x00404e38      0000           add byte [eax], al
            0x00404e3a      0000           add byte [eax], al
            0x00404e3c      0000           add byte [eax], al
            0x00404e3e      0000           add byte [eax], al
            0x00404e40      0000           add byte [eax], al
            0x00404e42      0000           add byte [eax], al
            0x00404e44      0000           add byte [eax], al
            0x00404e46      0000           add byte [eax], al
            0x00404e48      0000           add byte [eax], al
            0x00404e4a      0000           add byte [eax], al
            0x00404e4c      0000           add byte [eax], al
            0x00404e4e      0000           add byte [eax], al
            0x00404e50      0000           add byte [eax], al
            0x00404e52      0000           add byte [eax], al
            0x00404e54      0000           add byte [eax], al
            0x00404e56      0000           add byte [eax], al
            0x00404e58      0000           add byte [eax], al
            0x00404e5a      0000           add byte [eax], al
            0x00404e5c      0000           add byte [eax], al
            0x00404e5e      0000           add byte [eax], al
            0x00404e60      0000           add byte [eax], al
            0x00404e62      0000           add byte [eax], al
            0x00404e64      0000           add byte [eax], al
            0x00404e66      0000           add byte [eax], al
            0x00404e68      0000           add byte [eax], al
            0x00404e6a      0000           add byte [eax], al
            0x00404e6c      0000           add byte [eax], al
            0x00404e6e      0000           add byte [eax], al
            0x00404e70      0000           add byte [eax], al
            0x00404e72      0000           add byte [eax], al
            0x00404e74      0000           add byte [eax], al
            0x00404e76      0000           add byte [eax], al
            0x00404e78      0000           add byte [eax], al
            0x00404e7a      0000           add byte [eax], al
            0x00404e7c      0000           add byte [eax], al
            0x00404e7e      0000           add byte [eax], al
            0x00404e80      0000           add byte [eax], al
            0x00404e82      0000           add byte [eax], al
            0x00404e84      0000           add byte [eax], al
            0x00404e86      0000           add byte [eax], al
            0x00404e88      0000           add byte [eax], al
            0x00404e8a      0000           add byte [eax], al
            0x00404e8c      0000           add byte [eax], al
            0x00404e8e      0000           add byte [eax], al
            0x00404e90      0000           add byte [eax], al
            0x00404e92      0000           add byte [eax], al
            0x00404e94      0000           add byte [eax], al
            0x00404e96      0000           add byte [eax], al
            0x00404e98      0000           add byte [eax], al
            0x00404e9a      0000           add byte [eax], al
            0x00404e9c      0000           add byte [eax], al
            0x00404e9e      0000           add byte [eax], al
            0x00404ea0      0000           add byte [eax], al
            0x00404ea2      0000           add byte [eax], al
            0x00404ea4      0000           add byte [eax], al
            0x00404ea6      0000           add byte [eax], al
            0x00404ea8      0000           add byte [eax], al
            0x00404eaa      0000           add byte [eax], al
            0x00404eac      0000           add byte [eax], al
            0x00404eae      0000           add byte [eax], al
            0x00404eb0      0000           add byte [eax], al
            0x00404eb2      0000           add byte [eax], al
            0x00404eb4      0000           add byte [eax], al
            0x00404eb6      0000           add byte [eax], al
            0x00404eb8      0000           add byte [eax], al
            0x00404eba      0000           add byte [eax], al
            0x00404ebc      0000           add byte [eax], al
            0x00404ebe      0000           add byte [eax], al
            0x00404ec0      0000           add byte [eax], al
            0x00404ec2      0000           add byte [eax], al
            0x00404ec4      0000           add byte [eax], al
            0x00404ec6      0000           add byte [eax], al
            0x00404ec8      0000           add byte [eax], al
            0x00404eca      0000           add byte [eax], al
            0x00404ecc      0000           add byte [eax], al
            0x00404ece      0000           add byte [eax], al
            0x00404ed0      0000           add byte [eax], al
            0x00404ed2      0000           add byte [eax], al
            0x00404ed4      0000           add byte [eax], al
            0x00404ed6      0000           add byte [eax], al
            0x00404ed8      0000           add byte [eax], al
            0x00404eda      0000           add byte [eax], al
            0x00404edc      0000           add byte [eax], al
            0x00404ede      0000           add byte [eax], al
            0x00404ee0      0000           add byte [eax], al
            0x00404ee2      0000           add byte [eax], al
            0x00404ee4      0000           add byte [eax], al
            0x00404ee6      0000           add byte [eax], al
            0x00404ee8      0000           add byte [eax], al
            0x00404eea      0000           add byte [eax], al
            0x00404eec      0000           add byte [eax], al
            0x00404eee      0000           add byte [eax], al
            0x00404ef0      0000           add byte [eax], al
            0x00404ef2      0000           add byte [eax], al
            0x00404ef4      0000           add byte [eax], al
            0x00404ef6      0000           add byte [eax], al
            0x00404ef8      0000           add byte [eax], al
            0x00404efa      0000           add byte [eax], al
            0x00404efc      0000           add byte [eax], al
            0x00404efe      0000           add byte [eax], al
            0x00404f00      0000           add byte [eax], al
            0x00404f02      0000           add byte [eax], al
            0x00404f04      0000           add byte [eax], al
            0x00404f06      0000           add byte [eax], al
            0x00404f08      0000           add byte [eax], al
            0x00404f0a      0000           add byte [eax], al
            0x00404f0c      0000           add byte [eax], al
            0x00404f0e      0000           add byte [eax], al
            0x00404f10      0000           add byte [eax], al
            0x00404f12      0000           add byte [eax], al
            0x00404f14      0000           add byte [eax], al
            0x00404f16      0000           add byte [eax], al
            0x00404f18      0000           add byte [eax], al
            0x00404f1a      0000           add byte [eax], al
            0x00404f1c      0000           add byte [eax], al
            0x00404f1e      0000           add byte [eax], al
            0x00404f20      0000           add byte [eax], al
            0x00404f22      0000           add byte [eax], al
            0x00404f24      0000           add byte [eax], al
            0x00404f26      0000           add byte [eax], al
            0x00404f28      0000           add byte [eax], al
            0x00404f2a      0000           add byte [eax], al
            0x00404f2c      0000           add byte [eax], al
            0x00404f2e      0000           add byte [eax], al
            0x00404f30      0000           add byte [eax], al
            0x00404f32      0000           add byte [eax], al
            0x00404f34      0000           add byte [eax], al
            0x00404f36      0000           add byte [eax], al
            0x00404f38      0000           add byte [eax], al
            0x00404f3a      0000           add byte [eax], al
            0x00404f3c      0000           add byte [eax], al
            0x00404f3e      0000           add byte [eax], al
            0x00404f40      0000           add byte [eax], al
            0x00404f42      0000           add byte [eax], al
            0x00404f44      0000           add byte [eax], al
            0x00404f46      0000           add byte [eax], al
            0x00404f48      0000           add byte [eax], al
            0x00404f4a      0000           add byte [eax], al
            0x00404f4c      0000           add byte [eax], al
            0x00404f4e      0000           add byte [eax], al
            0x00404f50      0000           add byte [eax], al
            0x00404f52      0000           add byte [eax], al
            0x00404f54      0000           add byte [eax], al
            0x00404f56      0000           add byte [eax], al
            0x00404f58      0000           add byte [eax], al
            0x00404f5a      0000           add byte [eax], al
            0x00404f5c      0000           add byte [eax], al
            0x00404f5e      0000           add byte [eax], al
            0x00404f60      0000           add byte [eax], al
            0x00404f62      0000           add byte [eax], al
            0x00404f64      0000           add byte [eax], al
            0x00404f66      0000           add byte [eax], al
            0x00404f68      0000           add byte [eax], al
            0x00404f6a      0000           add byte [eax], al
            0x00404f6c      0000           add byte [eax], al
            0x00404f6e      0000           add byte [eax], al
            0x00404f70      0000           add byte [eax], al
            0x00404f72      0000           add byte [eax], al
            0x00404f74      0000           add byte [eax], al
            0x00404f76      0000           add byte [eax], al
            0x00404f78      0000           add byte [eax], al
            0x00404f7a      0000           add byte [eax], al
            0x00404f7c      0000           add byte [eax], al
            0x00404f7e      0000           add byte [eax], al
            0x00404f80      0000           add byte [eax], al
            0x00404f82      0000           add byte [eax], al
            0x00404f84      0000           add byte [eax], al
            0x00404f86      0000           add byte [eax], al
            0x00404f88      0000           add byte [eax], al
            0x00404f8a      0000           add byte [eax], al
            0x00404f8c      0000           add byte [eax], al
            0x00404f8e      0000           add byte [eax], al
            0x00404f90      0000           add byte [eax], al
            0x00404f92      0000           add byte [eax], al
            0x00404f94      0000           add byte [eax], al
            0x00404f96      0000           add byte [eax], al
            0x00404f98      0000           add byte [eax], al
            0x00404f9a      0000           add byte [eax], al
            0x00404f9c      0000           add byte [eax], al
            0x00404f9e      0000           add byte [eax], al
            0x00404fa0      0000           add byte [eax], al
            0x00404fa2      0000           add byte [eax], al
            0x00404fa4      0000           add byte [eax], al
            0x00404fa6      0000           add byte [eax], al
            0x00404fa8      0000           add byte [eax], al
            0x00404faa      0000           add byte [eax], al
            0x00404fac      0000           add byte [eax], al
            0x00404fae      0000           add byte [eax], al
            0x00404fb0      0000           add byte [eax], al
            0x00404fb2      0000           add byte [eax], al
            0x00404fb4      0000           add byte [eax], al
            0x00404fb6      0000           add byte [eax], al
            0x00404fb8      0000           add byte [eax], al
            0x00404fba      0000           add byte [eax], al
            0x00404fbc      0000           add byte [eax], al
            0x00404fbe      0000           add byte [eax], al
            0x00404fc0      0000           add byte [eax], al
            0x00404fc2      0000           add byte [eax], al
            0x00404fc4      0000           add byte [eax], al
            0x00404fc6      0000           add byte [eax], al
            0x00404fc8      0000           add byte [eax], al
            0x00404fca      0000           add byte [eax], al
            0x00404fcc      0000           add byte [eax], al
            0x00404fce      0000           add byte [eax], al
            0x00404fd0      0000           add byte [eax], al
            0x00404fd2      0000           add byte [eax], al
            0x00404fd4      0000           add byte [eax], al
            0x00404fd6      0000           add byte [eax], al
            0x00404fd8      0000           add byte [eax], al
            0x00404fda      0000           add byte [eax], al
            0x00404fdc      0000           add byte [eax], al
            0x00404fde      0000           add byte [eax], al
            0x00404fe0      0000           add byte [eax], al
            0x00404fe2      0000           add byte [eax], al
            0x00404fe4      0000           add byte [eax], al
            0x00404fe6      0000           add byte [eax], al
            0x00404fe8      0000           add byte [eax], al
            0x00404fea      0000           add byte [eax], al
            0x00404fec      0000           add byte [eax], al
            0x00404fee      0000           add byte [eax], al
            0x00404ff0      0000           add byte [eax], al
            0x00404ff2      0000           add byte [eax], al
            0x00404ff4      0000           add byte [eax], al
            0x00404ff6      0000           add byte [eax], al
            0x00404ff8      0000           add byte [eax], al
            0x00404ffa      0000           add byte [eax], al
            0x00404ffc      0000           add byte [eax], al
            0x00404ffe      0000           add byte [eax], al
            ;-- section..reloc:
            0x00405000      0010           add byte [eax], dl          ; [04] sr-- section size 4096 named .reloc
            0x00405002      0000           add byte [eax], al
            0x00405004      dc00           fadd qword [eax]
            0x00405006      0000           add byte [eax], al
            0x00405008      0830           or byte [eax], dh
            0x0040500a      0f30           wrmsr
            0x0040500c      1f             pop ds
            0x0040500d      3033           xor byte [ebx], dh
            0x0040500f      303d3046304b   xor byte [0x4b304630], bh   ; [0x4b304630:1]=255
            0x00405015      305830         xor byte [eax + 0x30], bl
            0x00405018      69306f307930   imul esi, dword [eax], 0x3079306f
            0x0040501e      7d30           jge 0x405050
            0x00405020      833087         xor dword [eax], 0xffffff87 ; [0xffffff87:4]=-1 ; 4294967175
            0x00405023      308c309930b8.  xor byte [eax + esi + 0x30b83099], cl
            0x0040502a      bd30c930d1     mov ebp, 0xd130c930
            0x0040502f      30dc           xor ah, bl
            0x00405031      30f8           xor al, bh
            0x00405033      3008           xor byte [eax], cl
            0x00405035      3112           xor dword [edx], edx
            0x00405037      311f           xor dword [edi], ebx
            0x00405039      3129           xor dword [ecx], ebp
            0x0040503b      302d30f0310c   xor byte [0xc31f030], ch    ; [0xc31f030:1]=255
            0x00405041      32f8           xor bh, al
            0x00405043      31fe           xor esi, edi
            0x00405045      311432         xor dword [edx + esi], edx
            0x00405048      1a32           sbb dh, byte [edx]
            0x0040504a      2932           sub dword [edx], esi
            0x0040504c      3432           xor al, 0x32                ; 50
            0x0040504e      b832d83250     mov eax, 0x5032d832
            0x00405053      335533         xor edx, dword [ebp + 0x33]
            0x00405056      6c             insb byte es:[edi], dx
            0x00405057      337133         xor esi, dword [ecx + 0x33]
            0x0040505a      b033           mov al, 0x33                ; '3' ; 51
            0x0040505c      b533           mov ch, 0x33                ; '3' ; 51
            0x0040505e      003406         add byte [esi + eax], dh
            0x00405061      340c           xor al, 0xc                 ; 12
            0x00405063      3412           xor al, 0x12                ; 18
            0x00405065      3418           xor al, 0x18                ; 24
            0x00405067      341e           xor al, 0x1e                ; 30
            0x00405069      3424           xor al, 0x24                ; 36
            0x0040506b      342a           xor al, 0x2a                ; 42
            0x0040506d      3430           xor al, 0x30                ; 48
            0x0040506f      3436           xor al, 0x36                ; 54
            0x00405071      343c           xor al, 0x3c                ; 60
            0x00405073      3442           xor al, 0x42                ; 66
            0x00405075      3448           xor al, 0x48                ; 72
            0x00405077      344e           xor al, 0x4e                ; 78
            0x00405079      3454           xor al, 0x54                ; 84
            0x0040507b      345a           xor al, 0x5a                ; 90
            0x0040507d      3460           xor al, 0x60                ; 96
            0x0040507f      3466           xor al, 0x66                ; 102
            0x00405081      346c           xor al, 0x6c                ; 108
            0x00405083      3472           xor al, 0x72                ; 114
            0x00405085      3478           xor al, 0x78                ; 120
            0x00405087      347e           xor al, 0x7e                ; 126
            0x00405089      3484           xor al, 0x84                ; 132
            0x0040508b      348a           xor al, 0x8a                ; 138
            0x0040508d      3490           xor al, 0x90                ; 144
            0x0040508f      3496           xor al, 0x96                ; 150
            0x00405091      349c           xor al, 0x9c                ; 156
            0x00405093      34a2           xor al, 0xa2                ; 162
            0x00405095      34a8           xor al, 0xa8                ; 168
            0x00405097      34ae           xor al, 0xae                ; 174
            0x00405099      34b4           xor al, 0xb4                ; 180
            0x0040509b      34ba           xor al, 0xba                ; 186
            0x0040509d      34c0           xor al, 0xc0                ; 192
            0x0040509f      34c6           xor al, 0xc6                ; 198
            0x004050a1      34cc           xor al, 0xcc                ; 204
            0x004050a3      34d2           xor al, 0xd2                ; 210
            0x004050a5      34d8           xor al, 0xd8                ; 216
            0x004050a7      34de           xor al, 0xde                ; 222
            0x004050a9      34e4           xor al, 0xe4                ; 228
            0x004050ab      34ea           xor al, 0xea                ; 234
            0x004050ad      34f0           xor al, 0xf0                ; 240
            0x004050af      34f6           xor al, 0xf6                ; 246
            0x004050b1      34fc           xor al, 0xfc                ; 252
            0x004050b3      3402           xor al, 2
            0x004050b5      3508350e35     xor eax, 0x350e3508
            0x004050ba      1435           adc al, 0x35
            0x004050bc      1a3520352635   sbb dh, byte [0x35263520]
            0x004050c2      2c35           sub al, 0x35                ; 53
            0x004050c4      323538353e35   xor dh, byte [0x353e3538]   ; [0x353e3538:1]=255
            0x004050ca      44             inc esp
            0x004050cb      354a355035     xor eax, 0x3550354a
            0x004050d0      56             push esi
            0x004050d1      355c356235     xor eax, 0x3562355c
            0x004050d6      68356e3500     push 0x356e35               ; '5n5'
            0x004050db      0000           add byte [eax], al
            0x004050dd      0000           add byte [eax], al
            0x004050df      0000           add byte [eax], al
            0x004050e1      0000           add byte [eax], al
            0x004050e3      0000           add byte [eax], al
            0x004050e5      0000           add byte [eax], al
            0x004050e7      0000           add byte [eax], al
            0x004050e9      0000           add byte [eax], al
            0x004050eb      0000           add byte [eax], al
            0x004050ed      0000           add byte [eax], al
            0x004050ef      0000           add byte [eax], al
            0x004050f1      0000           add byte [eax], al
            0x004050f3      0000           add byte [eax], al
            0x004050f5      0000           add byte [eax], al
            0x004050f7      0000           add byte [eax], al
            0x004050f9      0000           add byte [eax], al
            0x004050fb      00             invalid
            0x004050fc      0000           add byte [eax], al
            0x004050fe      0000           add byte [eax], al
            0x00405100      0000           add byte [eax], al
            0x00405102      0000           add byte [eax], al
            0x00405104      0000           add byte [eax], al
            0x00405106      0000           add byte [eax], al
            0x00405108      0000           add byte [eax], al
            0x0040510a      0000           add byte [eax], al
            0x0040510c      0000           add byte [eax], al
            0x0040510e      0000           add byte [eax], al
            0x00405110      0000           add byte [eax], al
            0x00405112      0000           add byte [eax], al
            0x00405114      0000           add byte [eax], al
            0x00405116      0000           add byte [eax], al
            0x00405118      0000           add byte [eax], al
            0x0040511a      0000           add byte [eax], al
            0x0040511c      0000           add byte [eax], al
            0x0040511e      0000           add byte [eax], al
            0x00405120      0000           add byte [eax], al
            0x00405122      0000           add byte [eax], al
            0x00405124      0000           add byte [eax], al
            0x00405126      0000           add byte [eax], al
            0x00405128      0000           add byte [eax], al
            0x0040512a      0000           add byte [eax], al
            0x0040512c      0000           add byte [eax], al
            0x0040512e      0000           add byte [eax], al
            0x00405130      0000           add byte [eax], al
            0x00405132      0000           add byte [eax], al
            0x00405134      0000           add byte [eax], al
            0x00405136      0000           add byte [eax], al
            0x00405138      0000           add byte [eax], al
            0x0040513a      0000           add byte [eax], al
            0x0040513c      0000           add byte [eax], al
            0x0040513e      0000           add byte [eax], al
            0x00405140      0000           add byte [eax], al
            0x00405142      0000           add byte [eax], al
            0x00405144      0000           add byte [eax], al
            0x00405146      0000           add byte [eax], al
            0x00405148      0000           add byte [eax], al
            0x0040514a      0000           add byte [eax], al
            0x0040514c      0000           add byte [eax], al
            0x0040514e      0000           add byte [eax], al
            0x00405150      0000           add byte [eax], al
            0x00405152      0000           add byte [eax], al
            0x00405154      0000           add byte [eax], al
            0x00405156      0000           add byte [eax], al
            0x00405158      0000           add byte [eax], al
            0x0040515a      0000           add byte [eax], al
            0x0040515c      0000           add byte [eax], al
            0x0040515e      0000           add byte [eax], al
            0x00405160      0000           add byte [eax], al
            0x00405162      0000           add byte [eax], al
            0x00405164      0000           add byte [eax], al
            0x00405166      0000           add byte [eax], al
            0x00405168      0000           add byte [eax], al
            0x0040516a      0000           add byte [eax], al
            0x0040516c      0000           add byte [eax], al
            0x0040516e      0000           add byte [eax], al
            0x00405170      0000           add byte [eax], al
            0x00405172      0000           add byte [eax], al
            0x00405174      0000           add byte [eax], al
            0x00405176      0000           add byte [eax], al
            0x00405178      0000           add byte [eax], al
            0x0040517a      0000           add byte [eax], al
            0x0040517c      0000           add byte [eax], al
            0x0040517e      0000           add byte [eax], al
            0x00405180      0000           add byte [eax], al
            0x00405182      0000           add byte [eax], al
            0x00405184      0000           add byte [eax], al
            0x00405186      0000           add byte [eax], al
            0x00405188      0000           add byte [eax], al
            0x0040518a      0000           add byte [eax], al
            0x0040518c      0000           add byte [eax], al
            0x0040518e      0000           add byte [eax], al
            0x00405190      0000           add byte [eax], al
            0x00405192      0000           add byte [eax], al
            0x00405194      0000           add byte [eax], al
            0x00405196      0000           add byte [eax], al
            0x00405198      0000           add byte [eax], al
            0x0040519a      0000           add byte [eax], al
            0x0040519c      0000           add byte [eax], al
            0x0040519e      0000           add byte [eax], al
            0x004051a0      0000           add byte [eax], al
            0x004051a2      0000           add byte [eax], al
            0x004051a4      0000           add byte [eax], al
            0x004051a6      0000           add byte [eax], al
            0x004051a8      0000           add byte [eax], al
            0x004051aa      0000           add byte [eax], al
            0x004051ac      0000           add byte [eax], al
            0x004051ae      0000           add byte [eax], al
            0x004051b0      0000           add byte [eax], al
            0x004051b2      0000           add byte [eax], al
            0x004051b4      0000           add byte [eax], al
            0x004051b6      0000           add byte [eax], al
            0x004051b8      0000           add byte [eax], al
            0x004051ba      0000           add byte [eax], al
            0x004051bc      0000           add byte [eax], al
            0x004051be      0000           add byte [eax], al
            0x004051c0      0000           add byte [eax], al
            0x004051c2      0000           add byte [eax], al
            0x004051c4      0000           add byte [eax], al
            0x004051c6      0000           add byte [eax], al
            0x004051c8      0000           add byte [eax], al
            0x004051ca      0000           add byte [eax], al
            0x004051cc      0000           add byte [eax], al
            0x004051ce      0000           add byte [eax], al
            0x004051d0      0000           add byte [eax], al
            0x004051d2      0000           add byte [eax], al
            0x004051d4      0000           add byte [eax], al
            0x004051d6      0000           add byte [eax], al
            0x004051d8      0000           add byte [eax], al
            0x004051da      0000           add byte [eax], al
            0x004051dc      0000           add byte [eax], al
            0x004051de      0000           add byte [eax], al
            0x004051e0      0000           add byte [eax], al
            0x004051e2      0000           add byte [eax], al
            0x004051e4      0000           add byte [eax], al
            0x004051e6      0000           add byte [eax], al
            0x004051e8      0000           add byte [eax], al
            0x004051ea      0000           add byte [eax], al
            0x004051ec      0000           add byte [eax], al
            0x004051ee      0000           add byte [eax], al
            0x004051f0      0000           add byte [eax], al
            0x004051f2      0000           add byte [eax], al
            0x004051f4      0000           add byte [eax], al
            0x004051f6      0000           add byte [eax], al
            0x004051f8      0000           add byte [eax], al
            0x004051fa      0000           add byte [eax], al
            0x004051fc      0000           add byte [eax], al
            0x004051fe      0000           add byte [eax], al
            0x00405200      0000           add byte [eax], al
            0x00405202      0000           add byte [eax], al
            0x00405204      0000           add byte [eax], al
            0x00405206      0000           add byte [eax], al
            0x00405208      0000           add byte [eax], al
            0x0040520a      0000           add byte [eax], al
            0x0040520c      0000           add byte [eax], al
            0x0040520e      0000           add byte [eax], al
            0x00405210      0000           add byte [eax], al
            0x00405212      0000           add byte [eax], al
            0x00405214      0000           add byte [eax], al
            0x00405216      0000           add byte [eax], al
            0x00405218      0000           add byte [eax], al
            0x0040521a      0000           add byte [eax], al
            0x0040521c      0000           add byte [eax], al
            0x0040521e      0000           add byte [eax], al
            0x00405220      0000           add byte [eax], al
            0x00405222      0000           add byte [eax], al
            0x00405224      0000           add byte [eax], al
            0x00405226      0000           add byte [eax], al
            0x00405228      0000           add byte [eax], al
            0x0040522a      0000           add byte [eax], al
            0x0040522c      0000           add byte [eax], al
            0x0040522e      0000           add byte [eax], al
            0x00405230      0000           add byte [eax], al
            0x00405232      0000           add byte [eax], al
            0x00405234      0000           add byte [eax], al
            0x00405236      0000           add byte [eax], al
            0x00405238      0000           add byte [eax], al
            0x0040523a      0000           add byte [eax], al
            0x0040523c      0000           add byte [eax], al
            0x0040523e      0000           add byte [eax], al
            0x00405240      0000           add byte [eax], al
            0x00405242      0000           add byte [eax], al
            0x00405244      0000           add byte [eax], al
            0x00405246      0000           add byte [eax], al
            0x00405248      0000           add byte [eax], al
            0x0040524a      0000           add byte [eax], al
            0x0040524c      0000           add byte [eax], al
            0x0040524e      0000           add byte [eax], al
            0x00405250      0000           add byte [eax], al
            0x00405252      0000           add byte [eax], al
            0x00405254      0000           add byte [eax], al
            0x00405256      0000           add byte [eax], al
            0x00405258      0000           add byte [eax], al
            0x0040525a      0000           add byte [eax], al
            0x0040525c      0000           add byte [eax], al
            0x0040525e      0000           add byte [eax], al
            0x00405260      0000           add byte [eax], al
            0x00405262      0000           add byte [eax], al
            0x00405264      0000           add byte [eax], al
            0x00405266      0000           add byte [eax], al
            0x00405268      0000           add byte [eax], al
            0x0040526a      0000           add byte [eax], al
            0x0040526c      0000           add byte [eax], al
            0x0040526e      0000           add byte [eax], al
            0x00405270      0000           add byte [eax], al
            0x00405272      0000           add byte [eax], al
            0x00405274      0000           add byte [eax], al
            0x00405276      0000           add byte [eax], al
            0x00405278      0000           add byte [eax], al
            0x0040527a      0000           add byte [eax], al
            0x0040527c      0000           add byte [eax], al
            0x0040527e      0000           add byte [eax], al
            0x00405280      0000           add byte [eax], al
            0x00405282      0000           add byte [eax], al
            0x00405284      0000           add byte [eax], al
            0x00405286      0000           add byte [eax], al
            0x00405288      0000           add byte [eax], al
            0x0040528a      0000           add byte [eax], al
            0x0040528c      0000           add byte [eax], al
            0x0040528e      0000           add byte [eax], al
            0x00405290      0000           add byte [eax], al
            0x00405292      0000           add byte [eax], al
            0x00405294      0000           add byte [eax], al
            0x00405296      0000           add byte [eax], al
            0x00405298      0000           add byte [eax], al
            0x0040529a      0000           add byte [eax], al
            0x0040529c      0000           add byte [eax], al
            0x0040529e      0000           add byte [eax], al
            0x004052a0      0000           add byte [eax], al
            0x004052a2      0000           add byte [eax], al
            0x004052a4      0000           add byte [eax], al
            0x004052a6      0000           add byte [eax], al
            0x004052a8      0000           add byte [eax], al
            0x004052aa      0000           add byte [eax], al
            0x004052ac      0000           add byte [eax], al
            0x004052ae      0000           add byte [eax], al
            0x004052b0      0000           add byte [eax], al
            0x004052b2      0000           add byte [eax], al
            0x004052b4      0000           add byte [eax], al
            0x004052b6      0000           add byte [eax], al
            0x004052b8      0000           add byte [eax], al
            0x004052ba      0000           add byte [eax], al
            0x004052bc      0000           add byte [eax], al
            0x004052be      0000           add byte [eax], al
            0x004052c0      0000           add byte [eax], al
            0x004052c2      0000           add byte [eax], al
            0x004052c4      0000           add byte [eax], al
            0x004052c6      0000           add byte [eax], al
            0x004052c8      0000           add byte [eax], al
            0x004052ca      0000           add byte [eax], al
            0x004052cc      0000           add byte [eax], al
            0x004052ce      0000           add byte [eax], al
            0x004052d0      0000           add byte [eax], al
            0x004052d2      0000           add byte [eax], al
            0x004052d4      0000           add byte [eax], al
            0x004052d6      0000           add byte [eax], al
            0x004052d8      0000           add byte [eax], al
            0x004052da      0000           add byte [eax], al
            0x004052dc      0000           add byte [eax], al
            0x004052de      0000           add byte [eax], al
            0x004052e0      0000           add byte [eax], al
            0x004052e2      0000           add byte [eax], al
            0x004052e4      0000           add byte [eax], al
            0x004052e6      0000           add byte [eax], al
            0x004052e8      0000           add byte [eax], al
            0x004052ea      0000           add byte [eax], al
            0x004052ec      0000           add byte [eax], al
            0x004052ee      0000           add byte [eax], al
            0x004052f0      0000           add byte [eax], al
            0x004052f2      0000           add byte [eax], al
            0x004052f4      0000           add byte [eax], al
            0x004052f6      0000           add byte [eax], al
            0x004052f8      0000           add byte [eax], al
            0x004052fa      0000           add byte [eax], al
            0x004052fc      0000           add byte [eax], al
            0x004052fe      0000           add byte [eax], al
            0x00405300      0000           add byte [eax], al
            0x00405302      0000           add byte [eax], al
            0x00405304      0000           add byte [eax], al
            0x00405306      0000           add byte [eax], al
            0x00405308      0000           add byte [eax], al
            0x0040530a      0000           add byte [eax], al
            0x0040530c      0000           add byte [eax], al
            0x0040530e      0000           add byte [eax], al
            0x00405310      0000           add byte [eax], al
            0x00405312      0000           add byte [eax], al
            0x00405314      0000           add byte [eax], al
            0x00405316      0000           add byte [eax], al
            0x00405318      0000           add byte [eax], al
            0x0040531a      0000           add byte [eax], al
            0x0040531c      0000           add byte [eax], al
            0x0040531e      0000           add byte [eax], al
            0x00405320      0000           add byte [eax], al
            0x00405322      0000           add byte [eax], al
            0x00405324      0000           add byte [eax], al
            0x00405326      0000           add byte [eax], al
            0x00405328      0000           add byte [eax], al
            0x0040532a      0000           add byte [eax], al
            0x0040532c      0000           add byte [eax], al
            0x0040532e      0000           add byte [eax], al
            0x00405330      0000           add byte [eax], al
            0x00405332      0000           add byte [eax], al
            0x00405334      0000           add byte [eax], al
            0x00405336      0000           add byte [eax], al
            0x00405338      0000           add byte [eax], al
            0x0040533a      0000           add byte [eax], al
            0x0040533c      0000           add byte [eax], al
            0x0040533e      0000           add byte [eax], al
            0x00405340      0000           add byte [eax], al
            0x00405342      0000           add byte [eax], al
            0x00405344      0000           add byte [eax], al
            0x00405346      0000           add byte [eax], al
            0x00405348      0000           add byte [eax], al
            0x0040534a      0000           add byte [eax], al
            0x0040534c      0000           add byte [eax], al
            0x0040534e      0000           add byte [eax], al
            0x00405350      0000           add byte [eax], al
            0x00405352      0000           add byte [eax], al
            0x00405354      0000           add byte [eax], al
            0x00405356      0000           add byte [eax], al
            0x00405358      0000           add byte [eax], al
            0x0040535a      0000           add byte [eax], al
            0x0040535c      0000           add byte [eax], al
            0x0040535e      0000           add byte [eax], al
            0x00405360      0000           add byte [eax], al
            0x00405362      0000           add byte [eax], al
            0x00405364      0000           add byte [eax], al
            0x00405366      0000           add byte [eax], al
            0x00405368      0000           add byte [eax], al
            0x0040536a      0000           add byte [eax], al
            0x0040536c      0000           add byte [eax], al
            0x0040536e      0000           add byte [eax], al
            0x00405370      0000           add byte [eax], al
            0x00405372      0000           add byte [eax], al
            0x00405374      0000           add byte [eax], al
            0x00405376      0000           add byte [eax], al
            0x00405378      0000           add byte [eax], al
            0x0040537a      0000           add byte [eax], al
            0x0040537c      0000           add byte [eax], al
            0x0040537e      0000           add byte [eax], al
            0x00405380      0000           add byte [eax], al
            0x00405382      0000           add byte [eax], al
            0x00405384      0000           add byte [eax], al
            0x00405386      0000           add byte [eax], al
            0x00405388      0000           add byte [eax], al
            0x0040538a      0000           add byte [eax], al
            0x0040538c      0000           add byte [eax], al
            0x0040538e      0000           add byte [eax], al
            0x00405390      0000           add byte [eax], al
            0x00405392      0000           add byte [eax], al
            0x00405394      0000           add byte [eax], al
            0x00405396      0000           add byte [eax], al
            0x00405398      0000           add byte [eax], al
            0x0040539a      0000           add byte [eax], al
            0x0040539c      0000           add byte [eax], al
            0x0040539e      0000           add byte [eax], al
            0x004053a0      0000           add byte [eax], al
            0x004053a2      0000           add byte [eax], al
            0x004053a4      0000           add byte [eax], al
            0x004053a6      0000           add byte [eax], al
            0x004053a8      0000           add byte [eax], al
            0x004053aa      0000           add byte [eax], al
            0x004053ac      0000           add byte [eax], al
            0x004053ae      0000           add byte [eax], al
            0x004053b0      0000           add byte [eax], al
            0x004053b2      0000           add byte [eax], al
            0x004053b4      0000           add byte [eax], al
            0x004053b6      0000           add byte [eax], al
            0x004053b8      0000           add byte [eax], al
            0x004053ba      0000           add byte [eax], al
            0x004053bc      0000           add byte [eax], al
            0x004053be      0000           add byte [eax], al
            0x004053c0      0000           add byte [eax], al
            0x004053c2      0000           add byte [eax], al
            0x004053c4      0000           add byte [eax], al
            0x004053c6      0000           add byte [eax], al
            0x004053c8      0000           add byte [eax], al
            0x004053ca      0000           add byte [eax], al
            0x004053cc      0000           add byte [eax], al
            0x004053ce      0000           add byte [eax], al
            0x004053d0      0000           add byte [eax], al
            0x004053d2      0000           add byte [eax], al
            0x004053d4      0000           add byte [eax], al
            0x004053d6      0000           add byte [eax], al
            0x004053d8      0000           add byte [eax], al
            0x004053da      0000           add byte [eax], al
            0x004053dc      0000           add byte [eax], al
            0x004053de      0000           add byte [eax], al
            0x004053e0      0000           add byte [eax], al
            0x004053e2      0000           add byte [eax], al
            0x004053e4      0000           add byte [eax], al
            0x004053e6      0000           add byte [eax], al
            0x004053e8      0000           add byte [eax], al
            0x004053ea      0000           add byte [eax], al
            0x004053ec      0000           add byte [eax], al
            0x004053ee      0000           add byte [eax], al
            0x004053f0      0000           add byte [eax], al
            0x004053f2      0000           add byte [eax], al
            0x004053f4      0000           add byte [eax], al
            0x004053f6      0000           add byte [eax], al
            0x004053f8      0000           add byte [eax], al
            0x004053fa      0000           add byte [eax], al
            0x004053fc      0000           add byte [eax], al
            0x004053fe      0000           add byte [eax], al
            0x00405400      0000           add byte [eax], al
            0x00405402      0000           add byte [eax], al
            0x00405404      0000           add byte [eax], al
            0x00405406      0000           add byte [eax], al
            0x00405408      0000           add byte [eax], al
            0x0040540a      0000           add byte [eax], al
            0x0040540c      0000           add byte [eax], al
            0x0040540e      0000           add byte [eax], al
            0x00405410      0000           add byte [eax], al
            0x00405412      0000           add byte [eax], al
            0x00405414      0000           add byte [eax], al
            0x00405416      0000           add byte [eax], al
            0x00405418      0000           add byte [eax], al
            0x0040541a      0000           add byte [eax], al
            0x0040541c      0000           add byte [eax], al
            0x0040541e      0000           add byte [eax], al
            0x00405420      0000           add byte [eax], al
            0x00405422      0000           add byte [eax], al
            0x00405424      0000           add byte [eax], al
            0x00405426      0000           add byte [eax], al
            0x00405428      0000           add byte [eax], al
            0x0040542a      0000           add byte [eax], al
            0x0040542c      0000           add byte [eax], al
            0x0040542e      0000           add byte [eax], al
            0x00405430      0000           add byte [eax], al
            0x00405432      0000           add byte [eax], al
            0x00405434      0000           add byte [eax], al
            0x00405436      0000           add byte [eax], al
            0x00405438      0000           add byte [eax], al
            0x0040543a      0000           add byte [eax], al
            0x0040543c      0000           add byte [eax], al
            0x0040543e      0000           add byte [eax], al
            0x00405440      0000           add byte [eax], al
            0x00405442      0000           add byte [eax], al
            0x00405444      0000           add byte [eax], al
            0x00405446      0000           add byte [eax], al
            0x00405448      0000           add byte [eax], al
            0x0040544a      0000           add byte [eax], al
            0x0040544c      0000           add byte [eax], al
            0x0040544e      0000           add byte [eax], al
            0x00405450      0000           add byte [eax], al
            0x00405452      0000           add byte [eax], al
            0x00405454      0000           add byte [eax], al
            0x00405456      0000           add byte [eax], al
            0x00405458      0000           add byte [eax], al
            0x0040545a      0000           add byte [eax], al
            0x0040545c      0000           add byte [eax], al
            0x0040545e      0000           add byte [eax], al
            0x00405460      0000           add byte [eax], al
            0x00405462      0000           add byte [eax], al
            0x00405464      0000           add byte [eax], al
            0x00405466      0000           add byte [eax], al
            0x00405468      0000           add byte [eax], al
            0x0040546a      0000           add byte [eax], al
            0x0040546c      0000           add byte [eax], al
            0x0040546e      0000           add byte [eax], al
            0x00405470      0000           add byte [eax], al
            0x00405472      0000           add byte [eax], al
            0x00405474      0000           add byte [eax], al
            0x00405476      0000           add byte [eax], al
            0x00405478      0000           add byte [eax], al
            0x0040547a      0000           add byte [eax], al
            0x0040547c      0000           add byte [eax], al
            0x0040547e      0000           add byte [eax], al
            0x00405480      0000           add byte [eax], al
            0x00405482      0000           add byte [eax], al
            0x00405484      0000           add byte [eax], al
            0x00405486      0000           add byte [eax], al
            0x00405488      0000           add byte [eax], al
            0x0040548a      0000           add byte [eax], al
            0x0040548c      0000           add byte [eax], al
            0x0040548e      0000           add byte [eax], al
            0x00405490      0000           add byte [eax], al
            0x00405492      0000           add byte [eax], al
            0x00405494      0000           add byte [eax], al
            0x00405496      0000           add byte [eax], al
            0x00405498      0000           add byte [eax], al
            0x0040549a      0000           add byte [eax], al
            0x0040549c      0000           add byte [eax], al
            0x0040549e      0000           add byte [eax], al
            0x004054a0      0000           add byte [eax], al
            0x004054a2      0000           add byte [eax], al
            0x004054a4      0000           add byte [eax], al
            0x004054a6      0000           add byte [eax], al
            0x004054a8      0000           add byte [eax], al
            0x004054aa      0000           add byte [eax], al
            0x004054ac      0000           add byte [eax], al
            0x004054ae      0000           add byte [eax], al
            0x004054b0      0000           add byte [eax], al
            0x004054b2      0000           add byte [eax], al
            0x004054b4      0000           add byte [eax], al
            0x004054b6      0000           add byte [eax], al
            0x004054b8      0000           add byte [eax], al
            0x004054ba      0000           add byte [eax], al
            0x004054bc      0000           add byte [eax], al
            0x004054be      0000           add byte [eax], al
            0x004054c0      0000           add byte [eax], al
            0x004054c2      0000           add byte [eax], al
            0x004054c4      0000           add byte [eax], al
            0x004054c6      0000           add byte [eax], al
            0x004054c8      0000           add byte [eax], al
            0x004054ca      0000           add byte [eax], al
            0x004054cc      0000           add byte [eax], al
            0x004054ce      0000           add byte [eax], al
            0x004054d0      0000           add byte [eax], al
            0x004054d2      0000           add byte [eax], al
            0x004054d4      0000           add byte [eax], al
            0x004054d6      0000           add byte [eax], al
            0x004054d8      0000           add byte [eax], al
            0x004054da      0000           add byte [eax], al
            0x004054dc      0000           add byte [eax], al
            0x004054de      0000           add byte [eax], al
            0x004054e0      0000           add byte [eax], al
            0x004054e2      0000           add byte [eax], al
            0x004054e4      0000           add byte [eax], al
            0x004054e6      0000           add byte [eax], al
            0x004054e8      0000           add byte [eax], al
            0x004054ea      0000           add byte [eax], al
            0x004054ec      0000           add byte [eax], al
            0x004054ee      0000           add byte [eax], al
            0x004054f0      0000           add byte [eax], al
            0x004054f2      0000           add byte [eax], al
            0x004054f4      0000           add byte [eax], al
            0x004054f6      0000           add byte [eax], al
            0x004054f8      0000           add byte [eax], al
            0x004054fa      0000           add byte [eax], al
            0x004054fc      0000           add byte [eax], al
            0x004054fe      0000           add byte [eax], al
            0x00405500      0000           add byte [eax], al
            0x00405502      0000           add byte [eax], al
            0x00405504      0000           add byte [eax], al
            0x00405506      0000           add byte [eax], al
            0x00405508      0000           add byte [eax], al
            0x0040550a      0000           add byte [eax], al
            0x0040550c      0000           add byte [eax], al
            0x0040550e      0000           add byte [eax], al
            0x00405510      0000           add byte [eax], al
            0x00405512      0000           add byte [eax], al
            0x00405514      0000           add byte [eax], al
            0x00405516      0000           add byte [eax], al
            0x00405518      0000           add byte [eax], al
            0x0040551a      0000           add byte [eax], al
            0x0040551c      0000           add byte [eax], al
            0x0040551e      0000           add byte [eax], al
            0x00405520      0000           add byte [eax], al
            0x00405522      0000           add byte [eax], al
            0x00405524      0000           add byte [eax], al
            0x00405526      0000           add byte [eax], al
            0x00405528      0000           add byte [eax], al
            0x0040552a      0000           add byte [eax], al
            0x0040552c      0000           add byte [eax], al
            0x0040552e      0000           add byte [eax], al
            0x00405530      0000           add byte [eax], al
            0x00405532      0000           add byte [eax], al
            0x00405534      0000           add byte [eax], al
            0x00405536      0000           add byte [eax], al
            0x00405538      0000           add byte [eax], al
            0x0040553a      0000           add byte [eax], al
            0x0040553c      0000           add byte [eax], al
            0x0040553e      0000           add byte [eax], al
            0x00405540      0000           add byte [eax], al
            0x00405542      0000           add byte [eax], al
            0x00405544      0000           add byte [eax], al
            0x00405546      0000           add byte [eax], al
            0x00405548      0000           add byte [eax], al
            0x0040554a      0000           add byte [eax], al
            0x0040554c      0000           add byte [eax], al
            0x0040554e      0000           add byte [eax], al
            0x00405550      0000           add byte [eax], al
            0x00405552      0000           add byte [eax], al
            0x00405554      0000           add byte [eax], al
            0x00405556      0000           add byte [eax], al
            0x00405558      0000           add byte [eax], al
            0x0040555a      0000           add byte [eax], al
            0x0040555c      0000           add byte [eax], al
            0x0040555e      0000           add byte [eax], al
            0x00405560      0000           add byte [eax], al
            0x00405562      0000           add byte [eax], al
            0x00405564      0000           add byte [eax], al
            0x00405566      0000           add byte [eax], al
            0x00405568      0000           add byte [eax], al
            0x0040556a      0000           add byte [eax], al
            0x0040556c      0000           add byte [eax], al
            0x0040556e      0000           add byte [eax], al
            0x00405570      0000           add byte [eax], al
            0x00405572      0000           add byte [eax], al
            0x00405574      0000           add byte [eax], al
            0x00405576      0000           add byte [eax], al
            0x00405578      0000           add byte [eax], al
            0x0040557a      0000           add byte [eax], al
            0x0040557c      0000           add byte [eax], al
            0x0040557e      0000           add byte [eax], al
            0x00405580      0000           add byte [eax], al
            0x00405582      0000           add byte [eax], al
            0x00405584      0000           add byte [eax], al
            0x00405586      0000           add byte [eax], al
            0x00405588      0000           add byte [eax], al
            0x0040558a      0000           add byte [eax], al
            0x0040558c      0000           add byte [eax], al
            0x0040558e      0000           add byte [eax], al
            0x00405590      0000           add byte [eax], al
            0x00405592      0000           add byte [eax], al
            0x00405594      0000           add byte [eax], al
            0x00405596      0000           add byte [eax], al
            0x00405598      0000           add byte [eax], al
            0x0040559a      0000           add byte [eax], al
            0x0040559c      0000           add byte [eax], al
            0x0040559e      0000           add byte [eax], al
            0x004055a0      0000           add byte [eax], al
            0x004055a2      0000           add byte [eax], al
            0x004055a4      0000           add byte [eax], al
            0x004055a6      0000           add byte [eax], al
            0x004055a8      0000           add byte [eax], al
            0x004055aa      0000           add byte [eax], al
            0x004055ac      0000           add byte [eax], al
            0x004055ae      0000           add byte [eax], al
            0x004055b0      0000           add byte [eax], al
            0x004055b2      0000           add byte [eax], al
            0x004055b4      0000           add byte [eax], al
            0x004055b6      0000           add byte [eax], al
            0x004055b8      0000           add byte [eax], al
            0x004055ba      0000           add byte [eax], al
            0x004055bc      0000           add byte [eax], al
            0x004055be      0000           add byte [eax], al
            0x004055c0      0000           add byte [eax], al
            0x004055c2      0000           add byte [eax], al
            0x004055c4      0000           add byte [eax], al
            0x004055c6      0000           add byte [eax], al
            0x004055c8      0000           add byte [eax], al
            0x004055ca      0000           add byte [eax], al
            0x004055cc      0000           add byte [eax], al
            0x004055ce      0000           add byte [eax], al
            0x004055d0      0000           add byte [eax], al
            0x004055d2      0000           add byte [eax], al
            0x004055d4      0000           add byte [eax], al
            0x004055d6      0000           add byte [eax], al
            0x004055d8      0000           add byte [eax], al
            0x004055da      0000           add byte [eax], al
            0x004055dc      0000           add byte [eax], al
            0x004055de      0000           add byte [eax], al
            0x004055e0      0000           add byte [eax], al
            0x004055e2      0000           add byte [eax], al
            0x004055e4      0000           add byte [eax], al
            0x004055e6      0000           add byte [eax], al
            0x004055e8      0000           add byte [eax], al
            0x004055ea      0000           add byte [eax], al
            0x004055ec      0000           add byte [eax], al
            0x004055ee      0000           add byte [eax], al
            0x004055f0      0000           add byte [eax], al
            0x004055f2      0000           add byte [eax], al
            0x004055f4      0000           add byte [eax], al
            0x004055f6      0000           add byte [eax], al
            0x004055f8      0000           add byte [eax], al
            0x004055fa      0000           add byte [eax], al
            0x004055fc      0000           add byte [eax], al
            0x004055fe      0000           add byte [eax], al
            0x00405600      0000           add byte [eax], al
            0x00405602      0000           add byte [eax], al
            0x00405604      0000           add byte [eax], al
            0x00405606      0000           add byte [eax], al
            0x00405608      0000           add byte [eax], al
            0x0040560a      0000           add byte [eax], al
            0x0040560c      0000           add byte [eax], al
            0x0040560e      0000           add byte [eax], al
            0x00405610      0000           add byte [eax], al
            0x00405612      0000           add byte [eax], al
            0x00405614      0000           add byte [eax], al
            0x00405616      0000           add byte [eax], al
            0x00405618      0000           add byte [eax], al
            0x0040561a      0000           add byte [eax], al
            0x0040561c      0000           add byte [eax], al
            0x0040561e      0000           add byte [eax], al
            0x00405620      0000           add byte [eax], al
            0x00405622      0000           add byte [eax], al
            0x00405624      0000           add byte [eax], al
            0x00405626      0000           add byte [eax], al
            0x00405628      0000           add byte [eax], al
            0x0040562a      0000           add byte [eax], al
            0x0040562c      0000           add byte [eax], al
            0x0040562e      0000           add byte [eax], al
            0x00405630      0000           add byte [eax], al
            0x00405632      0000           add byte [eax], al
            0x00405634      0000           add byte [eax], al
            0x00405636      0000           add byte [eax], al
            0x00405638      0000           add byte [eax], al
            0x0040563a      0000           add byte [eax], al
            0x0040563c      0000           add byte [eax], al
            0x0040563e      0000           add byte [eax], al
            0x00405640      0000           add byte [eax], al
            0x00405642      0000           add byte [eax], al
            0x00405644      0000           add byte [eax], al
            0x00405646      0000           add byte [eax], al
            0x00405648      0000           add byte [eax], al
            0x0040564a      0000           add byte [eax], al
            0x0040564c      0000           add byte [eax], al
            0x0040564e      0000           add byte [eax], al
            0x00405650      0000           add byte [eax], al
            0x00405652      0000           add byte [eax], al
            0x00405654      0000           add byte [eax], al
            0x00405656      0000           add byte [eax], al
            0x00405658      0000           add byte [eax], al
            0x0040565a      0000           add byte [eax], al
            0x0040565c      0000           add byte [eax], al
            0x0040565e      0000           add byte [eax], al
            0x00405660      0000           add byte [eax], al
            0x00405662      0000           add byte [eax], al
            0x00405664      0000           add byte [eax], al
            0x00405666      0000           add byte [eax], al
            0x00405668      0000           add byte [eax], al
            0x0040566a      0000           add byte [eax], al
            0x0040566c      0000           add byte [eax], al
            0x0040566e      0000           add byte [eax], al
            0x00405670      0000           add byte [eax], al
            0x00405672      0000           add byte [eax], al
            0x00405674      0000           add byte [eax], al
            0x00405676      0000           add byte [eax], al
            0x00405678      0000           add byte [eax], al
            0x0040567a      0000           add byte [eax], al
            0x0040567c      0000           add byte [eax], al
            0x0040567e      0000           add byte [eax], al
            0x00405680      0000           add byte [eax], al
            0x00405682      0000           add byte [eax], al
            0x00405684      0000           add byte [eax], al
            0x00405686      0000           add byte [eax], al
            0x00405688      0000           add byte [eax], al
            0x0040568a      0000           add byte [eax], al
            0x0040568c      0000           add byte [eax], al
            0x0040568e      0000           add byte [eax], al
            0x00405690      0000           add byte [eax], al
            0x00405692      0000           add byte [eax], al
            0x00405694      0000           add byte [eax], al
            0x00405696      0000           add byte [eax], al
            0x00405698      0000           add byte [eax], al
            0x0040569a      0000           add byte [eax], al
            0x0040569c      0000           add byte [eax], al
            0x0040569e      0000           add byte [eax], al
            0x004056a0      0000           add byte [eax], al
            0x004056a2      0000           add byte [eax], al
            0x004056a4      0000           add byte [eax], al
            0x004056a6      0000           add byte [eax], al
            0x004056a8      0000           add byte [eax], al
            0x004056aa      0000           add byte [eax], al
            0x004056ac      0000           add byte [eax], al
            0x004056ae      0000           add byte [eax], al
            0x004056b0      0000           add byte [eax], al
            0x004056b2      0000           add byte [eax], al
            0x004056b4      0000           add byte [eax], al
            0x004056b6      0000           add byte [eax], al
            0x004056b8      0000           add byte [eax], al
            0x004056ba      0000           add byte [eax], al
            0x004056bc      0000           add byte [eax], al
            0x004056be      0000           add byte [eax], al
            0x004056c0      0000           add byte [eax], al
            0x004056c2      0000           add byte [eax], al
            0x004056c4      0000           add byte [eax], al
            0x004056c6      0000           add byte [eax], al
            0x004056c8      0000           add byte [eax], al
            0x004056ca      0000           add byte [eax], al
            0x004056cc      0000           add byte [eax], al
            0x004056ce      0000           add byte [eax], al
            0x004056d0      0000           add byte [eax], al
            0x004056d2      0000           add byte [eax], al
            0x004056d4      0000           add byte [eax], al
            0x004056d6      0000           add byte [eax], al
            0x004056d8      0000           add byte [eax], al
            0x004056da      0000           add byte [eax], al
            0x004056dc      0000           add byte [eax], al
            0x004056de      0000           add byte [eax], al
            0x004056e0      0000           add byte [eax], al
            0x004056e2      0000           add byte [eax], al
            0x004056e4      0000           add byte [eax], al
            0x004056e6      0000           add byte [eax], al
            0x004056e8      0000           add byte [eax], al
            0x004056ea      0000           add byte [eax], al
            0x004056ec      0000           add byte [eax], al
            0x004056ee      0000           add byte [eax], al
            0x004056f0      0000           add byte [eax], al
            0x004056f2      0000           add byte [eax], al
            0x004056f4      0000           add byte [eax], al
            0x004056f6      0000           add byte [eax], al
            0x004056f8      0000           add byte [eax], al
            0x004056fa      0000           add byte [eax], al
            0x004056fc      0000           add byte [eax], al
            0x004056fe      0000           add byte [eax], al
            0x00405700      0000           add byte [eax], al
            0x00405702      0000           add byte [eax], al
            0x00405704      0000           add byte [eax], al
            0x00405706      0000           add byte [eax], al
            0x00405708      0000           add byte [eax], al
            0x0040570a      0000           add byte [eax], al
            0x0040570c      0000           add byte [eax], al
            0x0040570e      0000           add byte [eax], al
            0x00405710      0000           add byte [eax], al
            0x00405712      0000           add byte [eax], al
            0x00405714      0000           add byte [eax], al
            0x00405716      0000           add byte [eax], al
            0x00405718      0000           add byte [eax], al
            0x0040571a      0000           add byte [eax], al
            0x0040571c      0000           add byte [eax], al
            0x0040571e      0000           add byte [eax], al
            0x00405720      0000           add byte [eax], al
            0x00405722      0000           add byte [eax], al
            0x00405724      0000           add byte [eax], al
            0x00405726      0000           add byte [eax], al
            0x00405728      0000           add byte [eax], al
            0x0040572a      0000           add byte [eax], al
            0x0040572c      0000           add byte [eax], al
            0x0040572e      0000           add byte [eax], al
            0x00405730      0000           add byte [eax], al
            0x00405732      0000           add byte [eax], al
            0x00405734      0000           add byte [eax], al
            0x00405736      0000           add byte [eax], al
            0x00405738      0000           add byte [eax], al
            0x0040573a      0000           add byte [eax], al
            0x0040573c      0000           add byte [eax], al
            0x0040573e      0000           add byte [eax], al
            0x00405740      0000           add byte [eax], al
            0x00405742      0000           add byte [eax], al
            0x00405744      0000           add byte [eax], al
            0x00405746      0000           add byte [eax], al
            0x00405748      0000           add byte [eax], al
            0x0040574a      0000           add byte [eax], al
            0x0040574c      0000           add byte [eax], al
            0x0040574e      0000           add byte [eax], al
            0x00405750      0000           add byte [eax], al
            0x00405752      0000           add byte [eax], al
            0x00405754      0000           add byte [eax], al
            0x00405756      0000           add byte [eax], al
            0x00405758      0000           add byte [eax], al
            0x0040575a      0000           add byte [eax], al
            0x0040575c      0000           add byte [eax], al
            0x0040575e      0000           add byte [eax], al
            0x00405760      0000           add byte [eax], al
            0x00405762      0000           add byte [eax], al
            0x00405764      0000           add byte [eax], al
            0x00405766      0000           add byte [eax], al
            0x00405768      0000           add byte [eax], al
            0x0040576a      0000           add byte [eax], al
            0x0040576c      0000           add byte [eax], al
            0x0040576e      0000           add byte [eax], al
            0x00405770      0000           add byte [eax], al
            0x00405772      0000           add byte [eax], al
            0x00405774      0000           add byte [eax], al
            0x00405776      0000           add byte [eax], al
            0x00405778      0000           add byte [eax], al
            0x0040577a      0000           add byte [eax], al
            0x0040577c      0000           add byte [eax], al
            0x0040577e      0000           add byte [eax], al
            0x00405780      0000           add byte [eax], al
            0x00405782      0000           add byte [eax], al
            0x00405784      0000           add byte [eax], al
            0x00405786      0000           add byte [eax], al
            0x00405788      0000           add byte [eax], al
            0x0040578a      0000           add byte [eax], al
            0x0040578c      0000           add byte [eax], al
            0x0040578e      0000           add byte [eax], al
            0x00405790      0000           add byte [eax], al
            0x00405792      0000           add byte [eax], al
            0x00405794      0000           add byte [eax], al
            0x00405796      0000           add byte [eax], al
            0x00405798      0000           add byte [eax], al
            0x0040579a      0000           add byte [eax], al
            0x0040579c      0000           add byte [eax], al
            0x0040579e      0000           add byte [eax], al
            0x004057a0      0000           add byte [eax], al
            0x004057a2      0000           add byte [eax], al
            0x004057a4      0000           add byte [eax], al
            0x004057a6      0000           add byte [eax], al
            0x004057a8      0000           add byte [eax], al
            0x004057aa      0000           add byte [eax], al
            0x004057ac      0000           add byte [eax], al
            0x004057ae      0000           add byte [eax], al
            0x004057b0      0000           add byte [eax], al
            0x004057b2      0000           add byte [eax], al
            0x004057b4      0000           add byte [eax], al
            0x004057b6      0000           add byte [eax], al
            0x004057b8      0000           add byte [eax], al
            0x004057ba      0000           add byte [eax], al
            0x004057bc      0000           add byte [eax], al
            0x004057be      0000           add byte [eax], al
            0x004057c0      0000           add byte [eax], al
            0x004057c2      0000           add byte [eax], al
            0x004057c4      0000           add byte [eax], al
            0x004057c6      0000           add byte [eax], al
            0x004057c8      0000           add byte [eax], al
            0x004057ca      0000           add byte [eax], al
            0x004057cc      0000           add byte [eax], al
            0x004057ce      0000           add byte [eax], al
            0x004057d0      0000           add byte [eax], al
            0x004057d2      0000           add byte [eax], al
            0x004057d4      0000           add byte [eax], al
            0x004057d6      0000           add byte [eax], al
            0x004057d8      0000           add byte [eax], al
            0x004057da      0000           add byte [eax], al
            0x004057dc      0000           add byte [eax], al
            0x004057de      0000           add byte [eax], al
            0x004057e0      0000           add byte [eax], al
            0x004057e2      0000           add byte [eax], al
            0x004057e4      0000           add byte [eax], al
            0x004057e6      0000           add byte [eax], al
            0x004057e8      0000           add byte [eax], al
            0x004057ea      0000           add byte [eax], al
            0x004057ec      0000           add byte [eax], al
            0x004057ee      0000           add byte [eax], al
            0x004057f0      0000           add byte [eax], al
            0x004057f2      0000           add byte [eax], al
            0x004057f4      0000           add byte [eax], al
            0x004057f6      0000           add byte [eax], al
            0x004057f8      0000           add byte [eax], al
            0x004057fa      0000           add byte [eax], al
            0x004057fc      0000           add byte [eax], al
            0x004057fe      0000           add byte [eax], al
            0x00405800      0000           add byte [eax], al
            0x00405802      0000           add byte [eax], al
            0x00405804      0000           add byte [eax], al
            0x00405806      0000           add byte [eax], al
            0x00405808      0000           add byte [eax], al
            0x0040580a      0000           add byte [eax], al
            0x0040580c      0000           add byte [eax], al
            0x0040580e      0000           add byte [eax], al
            0x00405810      0000           add byte [eax], al
            0x00405812      0000           add byte [eax], al
            0x00405814      0000           add byte [eax], al
            0x00405816      0000           add byte [eax], al
            0x00405818      0000           add byte [eax], al
            0x0040581a      0000           add byte [eax], al
            0x0040581c      0000           add byte [eax], al
            0x0040581e      0000           add byte [eax], al
            0x00405820      0000           add byte [eax], al
            0x00405822      0000           add byte [eax], al
            0x00405824      0000           add byte [eax], al
            0x00405826      0000           add byte [eax], al
            0x00405828      0000           add byte [eax], al
            0x0040582a      0000           add byte [eax], al
            0x0040582c      0000           add byte [eax], al
            0x0040582e      0000           add byte [eax], al
            0x00405830      0000           add byte [eax], al
            0x00405832      0000           add byte [eax], al
            0x00405834      0000           add byte [eax], al
            0x00405836      0000           add byte [eax], al
            0x00405838      0000           add byte [eax], al
            0x0040583a      0000           add byte [eax], al
            0x0040583c      0000           add byte [eax], al
            0x0040583e      0000           add byte [eax], al
            0x00405840      0000           add byte [eax], al
            0x00405842      0000           add byte [eax], al
            0x00405844      0000           add byte [eax], al
            0x00405846      0000           add byte [eax], al
            0x00405848      0000           add byte [eax], al
            0x0040584a      0000           add byte [eax], al
            0x0040584c      0000           add byte [eax], al
            0x0040584e      0000           add byte [eax], al
            0x00405850      0000           add byte [eax], al
            0x00405852      0000           add byte [eax], al
            0x00405854      0000           add byte [eax], al
            0x00405856      0000           add byte [eax], al
            0x00405858      0000           add byte [eax], al
            0x0040585a      0000           add byte [eax], al
            0x0040585c      0000           add byte [eax], al
            0x0040585e      0000           add byte [eax], al
            0x00405860      0000           add byte [eax], al
            0x00405862      0000           add byte [eax], al
            0x00405864      0000           add byte [eax], al
            0x00405866      0000           add byte [eax], al
            0x00405868      0000           add byte [eax], al
            0x0040586a      0000           add byte [eax], al
            0x0040586c      0000           add byte [eax], al
            0x0040586e      0000           add byte [eax], al
            0x00405870      0000           add byte [eax], al
            0x00405872      0000           add byte [eax], al
            0x00405874      0000           add byte [eax], al
            0x00405876      0000           add byte [eax], al
            0x00405878      0000           add byte [eax], al
            0x0040587a      0000           add byte [eax], al
            0x0040587c      0000           add byte [eax], al
            0x0040587e      0000           add byte [eax], al
            0x00405880      0000           add byte [eax], al
            0x00405882      0000           add byte [eax], al
            0x00405884      0000           add byte [eax], al
            0x00405886      0000           add byte [eax], al
            0x00405888      0000           add byte [eax], al
            0x0040588a      0000           add byte [eax], al
            0x0040588c      0000           add byte [eax], al
            0x0040588e      0000           add byte [eax], al
            0x00405890      0000           add byte [eax], al
            0x00405892      0000           add byte [eax], al
            0x00405894      0000           add byte [eax], al
            0x00405896      0000           add byte [eax], al
            0x00405898      0000           add byte [eax], al
            0x0040589a      0000           add byte [eax], al
            0x0040589c      0000           add byte [eax], al
            0x0040589e      0000           add byte [eax], al
            0x004058a0      0000           add byte [eax], al
            0x004058a2      0000           add byte [eax], al
            0x004058a4      0000           add byte [eax], al
            0x004058a6      0000           add byte [eax], al
            0x004058a8      0000           add byte [eax], al
            0x004058aa      0000           add byte [eax], al
            0x004058ac      0000           add byte [eax], al
            0x004058ae      0000           add byte [eax], al
            0x004058b0      0000           add byte [eax], al
            0x004058b2      0000           add byte [eax], al
            0x004058b4      0000           add byte [eax], al
            0x004058b6      0000           add byte [eax], al
            0x004058b8      0000           add byte [eax], al
            0x004058ba      0000           add byte [eax], al
            0x004058bc      0000           add byte [eax], al
            0x004058be      0000           add byte [eax], al
            0x004058c0      0000           add byte [eax], al
            0x004058c2      0000           add byte [eax], al
            0x004058c4      0000           add byte [eax], al
            0x004058c6      0000           add byte [eax], al
            0x004058c8      0000           add byte [eax], al
            0x004058ca      0000           add byte [eax], al
            0x004058cc      0000           add byte [eax], al
            0x004058ce      0000           add byte [eax], al
            0x004058d0      0000           add byte [eax], al
            0x004058d2      0000           add byte [eax], al
            0x004058d4      0000           add byte [eax], al
            0x004058d6      0000           add byte [eax], al
            0x004058d8      0000           add byte [eax], al
            0x004058da      0000           add byte [eax], al
            0x004058dc      0000           add byte [eax], al
            0x004058de      0000           add byte [eax], al
            0x004058e0      0000           add byte [eax], al
            0x004058e2      0000           add byte [eax], al
            0x004058e4      0000           add byte [eax], al
            0x004058e6      0000           add byte [eax], al
            0x004058e8      0000           add byte [eax], al
            0x004058ea      0000           add byte [eax], al
            0x004058ec      0000           add byte [eax], al
            0x004058ee      0000           add byte [eax], al
            0x004058f0      0000           add byte [eax], al
            0x004058f2      0000           add byte [eax], al
            0x004058f4      0000           add byte [eax], al
            0x004058f6      0000           add byte [eax], al
            0x004058f8      0000           add byte [eax], al
            0x004058fa      0000           add byte [eax], al
            0x004058fc      0000           add byte [eax], al
            0x004058fe      0000           add byte [eax], al
            0x00405900      0000           add byte [eax], al
            0x00405902      0000           add byte [eax], al
            0x00405904      0000           add byte [eax], al
            0x00405906      0000           add byte [eax], al
            0x00405908      0000           add byte [eax], al
            0x0040590a      0000           add byte [eax], al
            0x0040590c      0000           add byte [eax], al
            0x0040590e      0000           add byte [eax], al
            0x00405910      0000           add byte [eax], al
            0x00405912      0000           add byte [eax], al
            0x00405914      0000           add byte [eax], al
            0x00405916      0000           add byte [eax], al
            0x00405918      0000           add byte [eax], al
            0x0040591a      0000           add byte [eax], al
            0x0040591c      0000           add byte [eax], al
            0x0040591e      0000           add byte [eax], al
            0x00405920      0000           add byte [eax], al
            0x00405922      0000           add byte [eax], al
            0x00405924      0000           add byte [eax], al
            0x00405926      0000           add byte [eax], al
            0x00405928      0000           add byte [eax], al
            0x0040592a      0000           add byte [eax], al
            0x0040592c      0000           add byte [eax], al
            0x0040592e      0000           add byte [eax], al
            0x00405930      0000           add byte [eax], al
            0x00405932      0000           add byte [eax], al
            0x00405934      0000           add byte [eax], al
            0x00405936      0000           add byte [eax], al
            0x00405938      0000           add byte [eax], al
            0x0040593a      0000           add byte [eax], al
            0x0040593c      0000           add byte [eax], al
            0x0040593e      0000           add byte [eax], al
            0x00405940      0000           add byte [eax], al
            0x00405942      0000           add byte [eax], al
            0x00405944      0000           add byte [eax], al
            0x00405946      0000           add byte [eax], al
            0x00405948      0000           add byte [eax], al
            0x0040594a      0000           add byte [eax], al
            0x0040594c      0000           add byte [eax], al
            0x0040594e      0000           add byte [eax], al
            0x00405950      0000           add byte [eax], al
            0x00405952      0000           add byte [eax], al
            0x00405954      0000           add byte [eax], al
            0x00405956      0000           add byte [eax], al
            0x00405958      0000           add byte [eax], al
            0x0040595a      0000           add byte [eax], al
            0x0040595c      0000           add byte [eax], al
            0x0040595e      0000           add byte [eax], al
            0x00405960      0000           add byte [eax], al
            0x00405962      0000           add byte [eax], al
            0x00405964      0000           add byte [eax], al
            0x00405966      0000           add byte [eax], al
            0x00405968      0000           add byte [eax], al
            0x0040596a      0000           add byte [eax], al
            0x0040596c      0000           add byte [eax], al
            0x0040596e      0000           add byte [eax], al
            0x00405970      0000           add byte [eax], al
            0x00405972      0000           add byte [eax], al
            0x00405974      0000           add byte [eax], al
            0x00405976      0000           add byte [eax], al
            0x00405978      0000           add byte [eax], al
            0x0040597a      0000           add byte [eax], al
            0x0040597c      0000           add byte [eax], al
            0x0040597e      0000           add byte [eax], al
            0x00405980      0000           add byte [eax], al
            0x00405982      0000           add byte [eax], al
            0x00405984      0000           add byte [eax], al
            0x00405986      0000           add byte [eax], al
            0x00405988      0000           add byte [eax], al
            0x0040598a      0000           add byte [eax], al
            0x0040598c      0000           add byte [eax], al
            0x0040598e      0000           add byte [eax], al
            0x00405990      0000           add byte [eax], al
            0x00405992      0000           add byte [eax], al
            0x00405994      0000           add byte [eax], al
            0x00405996      0000           add byte [eax], al
            0x00405998      0000           add byte [eax], al
            0x0040599a      0000           add byte [eax], al
            0x0040599c      0000           add byte [eax], al
            0x0040599e      0000           add byte [eax], al
            0x004059a0      0000           add byte [eax], al
            0x004059a2      0000           add byte [eax], al
            0x004059a4      0000           add byte [eax], al
            0x004059a6      0000           add byte [eax], al
            0x004059a8      0000           add byte [eax], al
            0x004059aa      0000           add byte [eax], al
            0x004059ac      0000           add byte [eax], al
            0x004059ae      0000           add byte [eax], al
            0x004059b0      0000           add byte [eax], al
            0x004059b2      0000           add byte [eax], al
            0x004059b4      0000           add byte [eax], al
            0x004059b6      0000           add byte [eax], al
            0x004059b8      0000           add byte [eax], al
            0x004059ba      0000           add byte [eax], al
            0x004059bc      0000           add byte [eax], al
            0x004059be      0000           add byte [eax], al
            0x004059c0      0000           add byte [eax], al
            0x004059c2      0000           add byte [eax], al
            0x004059c4      0000           add byte [eax], al
            0x004059c6      0000           add byte [eax], al
            0x004059c8      0000           add byte [eax], al
            0x004059ca      0000           add byte [eax], al
            0x004059cc      0000           add byte [eax], al
            0x004059ce      0000           add byte [eax], al
            0x004059d0      0000           add byte [eax], al
            0x004059d2      0000           add byte [eax], al
            0x004059d4      0000           add byte [eax], al
            0x004059d6      0000           add byte [eax], al
            0x004059d8      0000           add byte [eax], al
            0x004059da      0000           add byte [eax], al
            0x004059dc      0000           add byte [eax], al
            0x004059de      0000           add byte [eax], al
            0x004059e0      0000           add byte [eax], al
            0x004059e2      0000           add byte [eax], al
            0x004059e4      0000           add byte [eax], al
            0x004059e6      0000           add byte [eax], al
            0x004059e8      0000           add byte [eax], al
            0x004059ea      0000           add byte [eax], al
            0x004059ec      0000           add byte [eax], al
            0x004059ee      0000           add byte [eax], al
            0x004059f0      0000           add byte [eax], al
            0x004059f2      0000           add byte [eax], al
            0x004059f4      0000           add byte [eax], al
            0x004059f6      0000           add byte [eax], al
            0x004059f8      0000           add byte [eax], al
            0x004059fa      0000           add byte [eax], al
            0x004059fc      0000           add byte [eax], al
            0x004059fe      0000           add byte [eax], al
            0x00405a00      0000           add byte [eax], al
            0x00405a02      0000           add byte [eax], al
            0x00405a04      0000           add byte [eax], al
            0x00405a06      0000           add byte [eax], al
            0x00405a08      0000           add byte [eax], al
            0x00405a0a      0000           add byte [eax], al
            0x00405a0c      0000           add byte [eax], al
            0x00405a0e      0000           add byte [eax], al
            0x00405a10      0000           add byte [eax], al
            0x00405a12      0000           add byte [eax], al
            0x00405a14      0000           add byte [eax], al
            0x00405a16      0000           add byte [eax], al
            0x00405a18      0000           add byte [eax], al
            0x00405a1a      0000           add byte [eax], al
            0x00405a1c      0000           add byte [eax], al
            0x00405a1e      0000           add byte [eax], al
            0x00405a20      0000           add byte [eax], al
            0x00405a22      0000           add byte [eax], al
            0x00405a24      0000           add byte [eax], al
            0x00405a26      0000           add byte [eax], al
            0x00405a28      0000           add byte [eax], al
            0x00405a2a      0000           add byte [eax], al
            0x00405a2c      0000           add byte [eax], al
            0x00405a2e      0000           add byte [eax], al
            0x00405a30      0000           add byte [eax], al
            0x00405a32      0000           add byte [eax], al
            0x00405a34      0000           add byte [eax], al
            0x00405a36      0000           add byte [eax], al
            0x00405a38      0000           add byte [eax], al
            0x00405a3a      0000           add byte [eax], al
            0x00405a3c      0000           add byte [eax], al
            0x00405a3e      0000           add byte [eax], al
            0x00405a40      0000           add byte [eax], al
            0x00405a42      0000           add byte [eax], al
            0x00405a44      0000           add byte [eax], al
            0x00405a46      0000           add byte [eax], al
            0x00405a48      0000           add byte [eax], al
            0x00405a4a      0000           add byte [eax], al
            0x00405a4c      0000           add byte [eax], al
            0x00405a4e      0000           add byte [eax], al
            0x00405a50      0000           add byte [eax], al
            0x00405a52      0000           add byte [eax], al
            0x00405a54      0000           add byte [eax], al
            0x00405a56      0000           add byte [eax], al
            0x00405a58      0000           add byte [eax], al
            0x00405a5a      0000           add byte [eax], al
            0x00405a5c      0000           add byte [eax], al
            0x00405a5e      0000           add byte [eax], al
            0x00405a60      0000           add byte [eax], al
            0x00405a62      0000           add byte [eax], al
            0x00405a64      0000           add byte [eax], al
            0x00405a66      0000           add byte [eax], al
            0x00405a68      0000           add byte [eax], al
            0x00405a6a      0000           add byte [eax], al
            0x00405a6c      0000           add byte [eax], al
            0x00405a6e      0000           add byte [eax], al
            0x00405a70      0000           add byte [eax], al
            0x00405a72      0000           add byte [eax], al
            0x00405a74      0000           add byte [eax], al
            0x00405a76      0000           add byte [eax], al
            0x00405a78      0000           add byte [eax], al
            0x00405a7a      0000           add byte [eax], al
            0x00405a7c      0000           add byte [eax], al
            0x00405a7e      0000           add byte [eax], al
            0x00405a80      0000           add byte [eax], al
            0x00405a82      0000           add byte [eax], al
            0x00405a84      0000           add byte [eax], al
            0x00405a86      0000           add byte [eax], al
            0x00405a88      0000           add byte [eax], al
            0x00405a8a      0000           add byte [eax], al
            0x00405a8c      0000           add byte [eax], al
            0x00405a8e      0000           add byte [eax], al
            0x00405a90      0000           add byte [eax], al
            0x00405a92      0000           add byte [eax], al
            0x00405a94      0000           add byte [eax], al
            0x00405a96      0000           add byte [eax], al
            0x00405a98      0000           add byte [eax], al
            0x00405a9a      0000           add byte [eax], al
            0x00405a9c      0000           add byte [eax], al
            0x00405a9e      0000           add byte [eax], al
            0x00405aa0      0000           add byte [eax], al
            0x00405aa2      0000           add byte [eax], al
            0x00405aa4      0000           add byte [eax], al
            0x00405aa6      0000           add byte [eax], al
            0x00405aa8      0000           add byte [eax], al
            0x00405aaa      0000           add byte [eax], al
            0x00405aac      0000           add byte [eax], al
            0x00405aae      0000           add byte [eax], al
            0x00405ab0      0000           add byte [eax], al
            0x00405ab2      0000           add byte [eax], al
            0x00405ab4      0000           add byte [eax], al
            0x00405ab6      0000           add byte [eax], al
            0x00405ab8      0000           add byte [eax], al
            0x00405aba      0000           add byte [eax], al
            0x00405abc      0000           add byte [eax], al
            0x00405abe      0000           add byte [eax], al
            0x00405ac0      0000           add byte [eax], al
            0x00405ac2      0000           add byte [eax], al
            0x00405ac4      0000           add byte [eax], al
            0x00405ac6      0000           add byte [eax], al
            0x00405ac8      0000           add byte [eax], al
            0x00405aca      0000           add byte [eax], al
            0x00405acc      0000           add byte [eax], al
            0x00405ace      0000           add byte [eax], al
            0x00405ad0      0000           add byte [eax], al
            0x00405ad2      0000           add byte [eax], al
            0x00405ad4      0000           add byte [eax], al
            0x00405ad6      0000           add byte [eax], al
            0x00405ad8      0000           add byte [eax], al
            0x00405ada      0000           add byte [eax], al
            0x00405adc      0000           add byte [eax], al
            0x00405ade      0000           add byte [eax], al
            0x00405ae0      0000           add byte [eax], al
            0x00405ae2      0000           add byte [eax], al
            0x00405ae4      0000           add byte [eax], al
            0x00405ae6      0000           add byte [eax], al
            0x00405ae8      0000           add byte [eax], al
            0x00405aea      0000           add byte [eax], al
            0x00405aec      0000           add byte [eax], al
            0x00405aee      0000           add byte [eax], al
            0x00405af0      0000           add byte [eax], al
            0x00405af2      0000           add byte [eax], al
            0x00405af4      0000           add byte [eax], al
            0x00405af6      0000           add byte [eax], al
            0x00405af8      0000           add byte [eax], al
            0x00405afa      0000           add byte [eax], al
            0x00405afc      0000           add byte [eax], al
            0x00405afe      0000           add byte [eax], al
            0x00405b00      0000           add byte [eax], al
            0x00405b02      0000           add byte [eax], al
            0x00405b04      0000           add byte [eax], al
            0x00405b06      0000           add byte [eax], al
            0x00405b08      0000           add byte [eax], al
            0x00405b0a      0000           add byte [eax], al
            0x00405b0c      0000           add byte [eax], al
            0x00405b0e      0000           add byte [eax], al
            0x00405b10      0000           add byte [eax], al
            0x00405b12      0000           add byte [eax], al
            0x00405b14      0000           add byte [eax], al
            0x00405b16      0000           add byte [eax], al
            0x00405b18      0000           add byte [eax], al
            0x00405b1a      0000           add byte [eax], al
            0x00405b1c      0000           add byte [eax], al
            0x00405b1e      0000           add byte [eax], al
            0x00405b20      0000           add byte [eax], al
            0x00405b22      0000           add byte [eax], al
            0x00405b24      0000           add byte [eax], al
            0x00405b26      0000           add byte [eax], al
            0x00405b28      0000           add byte [eax], al
            0x00405b2a      0000           add byte [eax], al
            0x00405b2c      0000           add byte [eax], al
            0x00405b2e      0000           add byte [eax], al
            0x00405b30      0000           add byte [eax], al
            0x00405b32      0000           add byte [eax], al
            0x00405b34      0000           add byte [eax], al
            0x00405b36      0000           add byte [eax], al
            0x00405b38      0000           add byte [eax], al
            0x00405b3a      0000           add byte [eax], al
            0x00405b3c      0000           add byte [eax], al
            0x00405b3e      0000           add byte [eax], al
            0x00405b40      0000           add byte [eax], al
            0x00405b42      0000           add byte [eax], al
            0x00405b44      0000           add byte [eax], al
            0x00405b46      0000           add byte [eax], al
            0x00405b48      0000           add byte [eax], al
            0x00405b4a      0000           add byte [eax], al
            0x00405b4c      0000           add byte [eax], al
            0x00405b4e      0000           add byte [eax], al
            0x00405b50      0000           add byte [eax], al
            0x00405b52      0000           add byte [eax], al
            0x00405b54      0000           add byte [eax], al
            0x00405b56      0000           add byte [eax], al
            0x00405b58      0000           add byte [eax], al
            0x00405b5a      0000           add byte [eax], al
            0x00405b5c      0000           add byte [eax], al
            0x00405b5e      0000           add byte [eax], al
            0x00405b60      0000           add byte [eax], al
            0x00405b62      0000           add byte [eax], al
            0x00405b64      0000           add byte [eax], al
            0x00405b66      0000           add byte [eax], al
            0x00405b68      0000           add byte [eax], al
            0x00405b6a      0000           add byte [eax], al
            0x00405b6c      0000           add byte [eax], al
            0x00405b6e      0000           add byte [eax], al
            0x00405b70      0000           add byte [eax], al
            0x00405b72      0000           add byte [eax], al
            0x00405b74      0000           add byte [eax], al
            0x00405b76      0000           add byte [eax], al
            0x00405b78      0000           add byte [eax], al
            0x00405b7a      0000           add byte [eax], al
            0x00405b7c      0000           add byte [eax], al
            0x00405b7e      0000           add byte [eax], al
            0x00405b80      0000           add byte [eax], al
            0x00405b82      0000           add byte [eax], al
            0x00405b84      0000           add byte [eax], al
            0x00405b86      0000           add byte [eax], al
            0x00405b88      0000           add byte [eax], al
            0x00405b8a      0000           add byte [eax], al
            0x00405b8c      0000           add byte [eax], al
            0x00405b8e      0000           add byte [eax], al
            0x00405b90      0000           add byte [eax], al
            0x00405b92      0000           add byte [eax], al
            0x00405b94      0000           add byte [eax], al
            0x00405b96      0000           add byte [eax], al
            0x00405b98      0000           add byte [eax], al
            0x00405b9a      0000           add byte [eax], al
            0x00405b9c      0000           add byte [eax], al
            0x00405b9e      0000           add byte [eax], al
            0x00405ba0      0000           add byte [eax], al
            0x00405ba2      0000           add byte [eax], al
            0x00405ba4      0000           add byte [eax], al
            0x00405ba6      0000           add byte [eax], al
            0x00405ba8      0000           add byte [eax], al
            0x00405baa      0000           add byte [eax], al
            0x00405bac      0000           add byte [eax], al
            0x00405bae      0000           add byte [eax], al
            0x00405bb0      0000           add byte [eax], al
            0x00405bb2      0000           add byte [eax], al
            0x00405bb4      0000           add byte [eax], al
            0x00405bb6      0000           add byte [eax], al
            0x00405bb8      0000           add byte [eax], al
            0x00405bba      0000           add byte [eax], al
            0x00405bbc      0000           add byte [eax], al
            0x00405bbe      0000           add byte [eax], al
            0x00405bc0      0000           add byte [eax], al
            0x00405bc2      0000           add byte [eax], al
            0x00405bc4      0000           add byte [eax], al
            0x00405bc6      0000           add byte [eax], al
            0x00405bc8      0000           add byte [eax], al
            0x00405bca      0000           add byte [eax], al
            0x00405bcc      0000           add byte [eax], al
            0x00405bce      0000           add byte [eax], al
            0x00405bd0      0000           add byte [eax], al
            0x00405bd2      0000           add byte [eax], al
            0x00405bd4      0000           add byte [eax], al
            0x00405bd6      0000           add byte [eax], al
            0x00405bd8      0000           add byte [eax], al
            0x00405bda      0000           add byte [eax], al
            0x00405bdc      0000           add byte [eax], al
            0x00405bde      0000           add byte [eax], al
            0x00405be0      0000           add byte [eax], al
            0x00405be2      0000           add byte [eax], al
            0x00405be4      0000           add byte [eax], al
            0x00405be6      0000           add byte [eax], al
            0x00405be8      0000           add byte [eax], al
            0x00405bea      0000           add byte [eax], al
            0x00405bec      0000           add byte [eax], al
            0x00405bee      0000           add byte [eax], al
            0x00405bf0      0000           add byte [eax], al
            0x00405bf2      0000           add byte [eax], al
            0x00405bf4      0000           add byte [eax], al
            0x00405bf6      0000           add byte [eax], al
            0x00405bf8      0000           add byte [eax], al
            0x00405bfa      0000           add byte [eax], al
            0x00405bfc      0000           add byte [eax], al
            0x00405bfe      0000           add byte [eax], al
            0x00405c00      0000           add byte [eax], al
            0x00405c02      0000           add byte [eax], al
            0x00405c04      0000           add byte [eax], al
            0x00405c06      0000           add byte [eax], al
            0x00405c08      0000           add byte [eax], al
            0x00405c0a      0000           add byte [eax], al
            0x00405c0c      0000           add byte [eax], al
            0x00405c0e      0000           add byte [eax], al
            0x00405c10      0000           add byte [eax], al
            0x00405c12      0000           add byte [eax], al
            0x00405c14      0000           add byte [eax], al
            0x00405c16      0000           add byte [eax], al
            0x00405c18      0000           add byte [eax], al
            0x00405c1a      0000           add byte [eax], al
            0x00405c1c      0000           add byte [eax], al
            0x00405c1e      0000           add byte [eax], al
            0x00405c20      0000           add byte [eax], al
            0x00405c22      0000           add byte [eax], al
            0x00405c24      0000           add byte [eax], al
            0x00405c26      0000           add byte [eax], al
            0x00405c28      0000           add byte [eax], al
            0x00405c2a      0000           add byte [eax], al
            0x00405c2c      0000           add byte [eax], al
            0x00405c2e      0000           add byte [eax], al
            0x00405c30      0000           add byte [eax], al
            0x00405c32      0000           add byte [eax], al
            0x00405c34      0000           add byte [eax], al
            0x00405c36      0000           add byte [eax], al
            0x00405c38      0000           add byte [eax], al
            0x00405c3a      0000           add byte [eax], al
            0x00405c3c      0000           add byte [eax], al
            0x00405c3e      0000           add byte [eax], al
            0x00405c40      0000           add byte [eax], al
            0x00405c42      0000           add byte [eax], al
            0x00405c44      0000           add byte [eax], al
            0x00405c46      0000           add byte [eax], al
            0x00405c48      0000           add byte [eax], al
            0x00405c4a      0000           add byte [eax], al
            0x00405c4c      0000           add byte [eax], al
            0x00405c4e      0000           add byte [eax], al
            0x00405c50      0000           add byte [eax], al
            0x00405c52      0000           add byte [eax], al
            0x00405c54      0000           add byte [eax], al
            0x00405c56      0000           add byte [eax], al
            0x00405c58      0000           add byte [eax], al
            0x00405c5a      0000           add byte [eax], al
            0x00405c5c      0000           add byte [eax], al
            0x00405c5e      0000           add byte [eax], al
            0x00405c60      0000           add byte [eax], al
            0x00405c62      0000           add byte [eax], al
            0x00405c64      0000           add byte [eax], al
            0x00405c66      0000           add byte [eax], al
            0x00405c68      0000           add byte [eax], al
            0x00405c6a      0000           add byte [eax], al
            0x00405c6c      0000           add byte [eax], al
            0x00405c6e      0000           add byte [eax], al
            0x00405c70      0000           add byte [eax], al
            0x00405c72      0000           add byte [eax], al
            0x00405c74      0000           add byte [eax], al
            0x00405c76      0000           add byte [eax], al
            0x00405c78      0000           add byte [eax], al
            0x00405c7a      0000           add byte [eax], al
            0x00405c7c      0000           add byte [eax], al
            0x00405c7e      0000           add byte [eax], al
            0x00405c80      0000           add byte [eax], al
            0x00405c82      0000           add byte [eax], al
            0x00405c84      0000           add byte [eax], al
            0x00405c86      0000           add byte [eax], al
            0x00405c88      0000           add byte [eax], al
            0x00405c8a      0000           add byte [eax], al
            0x00405c8c      0000           add byte [eax], al
            0x00405c8e      0000           add byte [eax], al
            0x00405c90      0000           add byte [eax], al
            0x00405c92      0000           add byte [eax], al
            0x00405c94      0000           add byte [eax], al
            0x00405c96      0000           add byte [eax], al
            0x00405c98      0000           add byte [eax], al
            0x00405c9a      0000           add byte [eax], al
            0x00405c9c      0000           add byte [eax], al
            0x00405c9e      0000           add byte [eax], al
            0x00405ca0      0000           add byte [eax], al
            0x00405ca2      0000           add byte [eax], al
            0x00405ca4      0000           add byte [eax], al
            0x00405ca6      0000           add byte [eax], al
            0x00405ca8      0000           add byte [eax], al
            0x00405caa      0000           add byte [eax], al
            0x00405cac      0000           add byte [eax], al
            0x00405cae      0000           add byte [eax], al
            0x00405cb0      0000           add byte [eax], al
            0x00405cb2      0000           add byte [eax], al
            0x00405cb4      0000           add byte [eax], al
            0x00405cb6      0000           add byte [eax], al
            0x00405cb8      0000           add byte [eax], al
            0x00405cba      0000           add byte [eax], al
            0x00405cbc      0000           add byte [eax], al
            0x00405cbe      0000           add byte [eax], al
            0x00405cc0      0000           add byte [eax], al
            0x00405cc2      0000           add byte [eax], al
            0x00405cc4      0000           add byte [eax], al
            0x00405cc6      0000           add byte [eax], al
            0x00405cc8      0000           add byte [eax], al
            0x00405cca      0000           add byte [eax], al
            0x00405ccc      0000           add byte [eax], al
            0x00405cce      0000           add byte [eax], al
            0x00405cd0      0000           add byte [eax], al
            0x00405cd2      0000           add byte [eax], al
            0x00405cd4      0000           add byte [eax], al
            0x00405cd6      0000           add byte [eax], al
            0x00405cd8      0000           add byte [eax], al
            0x00405cda      0000           add byte [eax], al
            0x00405cdc      0000           add byte [eax], al
            0x00405cde      0000           add byte [eax], al
            0x00405ce0      0000           add byte [eax], al
            0x00405ce2      0000           add byte [eax], al
            0x00405ce4      0000           add byte [eax], al
            0x00405ce6      0000           add byte [eax], al
            0x00405ce8      0000           add byte [eax], al
            0x00405cea      0000           add byte [eax], al
            0x00405cec      0000           add byte [eax], al
            0x00405cee      0000           add byte [eax], al
            0x00405cf0      0000           add byte [eax], al
            0x00405cf2      0000           add byte [eax], al
            0x00405cf4      0000           add byte [eax], al
            0x00405cf6      0000           add byte [eax], al
            0x00405cf8      0000           add byte [eax], al
            0x00405cfa      0000           add byte [eax], al
            0x00405cfc      0000           add byte [eax], al
            0x00405cfe      0000           add byte [eax], al
            0x00405d00      0000           add byte [eax], al
            0x00405d02      0000           add byte [eax], al
            0x00405d04      0000           add byte [eax], al
            0x00405d06      0000           add byte [eax], al
            0x00405d08      0000           add byte [eax], al
            0x00405d0a      0000           add byte [eax], al
            0x00405d0c      0000           add byte [eax], al
            0x00405d0e      0000           add byte [eax], al
            0x00405d10      0000           add byte [eax], al
            0x00405d12      0000           add byte [eax], al
            0x00405d14      0000           add byte [eax], al
            0x00405d16      0000           add byte [eax], al
            0x00405d18      0000           add byte [eax], al
            0x00405d1a      0000           add byte [eax], al
            0x00405d1c      0000           add byte [eax], al
            0x00405d1e      0000           add byte [eax], al
            0x00405d20      0000           add byte [eax], al
            0x00405d22      0000           add byte [eax], al
            0x00405d24      0000           add byte [eax], al
            0x00405d26      0000           add byte [eax], al
            0x00405d28      0000           add byte [eax], al
            0x00405d2a      0000           add byte [eax], al
            0x00405d2c      0000           add byte [eax], al
            0x00405d2e      0000           add byte [eax], al
            0x00405d30      0000           add byte [eax], al
            0x00405d32      0000           add byte [eax], al
            0x00405d34      0000           add byte [eax], al
            0x00405d36      0000           add byte [eax], al
            0x00405d38      0000           add byte [eax], al
            0x00405d3a      0000           add byte [eax], al
            0x00405d3c      0000           add byte [eax], al
            0x00405d3e      0000           add byte [eax], al
            0x00405d40      0000           add byte [eax], al
            0x00405d42      0000           add byte [eax], al
            0x00405d44      0000           add byte [eax], al
            0x00405d46      0000           add byte [eax], al
            0x00405d48      0000           add byte [eax], al
            0x00405d4a      0000           add byte [eax], al
            0x00405d4c      0000           add byte [eax], al
            0x00405d4e      0000           add byte [eax], al
            0x00405d50      0000           add byte [eax], al
            0x00405d52      0000           add byte [eax], al
            0x00405d54      0000           add byte [eax], al
            0x00405d56      0000           add byte [eax], al
            0x00405d58      0000           add byte [eax], al
            0x00405d5a      0000           add byte [eax], al
            0x00405d5c      0000           add byte [eax], al
            0x00405d5e      0000           add byte [eax], al
            0x00405d60      0000           add byte [eax], al
            0x00405d62      0000           add byte [eax], al
            0x00405d64      0000           add byte [eax], al
            0x00405d66      0000           add byte [eax], al
            0x00405d68      0000           add byte [eax], al
            0x00405d6a      0000           add byte [eax], al
            0x00405d6c      0000           add byte [eax], al
            0x00405d6e      0000           add byte [eax], al
            0x00405d70      0000           add byte [eax], al
            0x00405d72      0000           add byte [eax], al
            0x00405d74      0000           add byte [eax], al
            0x00405d76      0000           add byte [eax], al
            0x00405d78      0000           add byte [eax], al
            0x00405d7a      0000           add byte [eax], al
            0x00405d7c      0000           add byte [eax], al
            0x00405d7e      0000           add byte [eax], al
            0x00405d80      0000           add byte [eax], al
            0x00405d82      0000           add byte [eax], al
            0x00405d84      0000           add byte [eax], al
            0x00405d86      0000           add byte [eax], al
            0x00405d88      0000           add byte [eax], al
            0x00405d8a      0000           add byte [eax], al
            0x00405d8c      0000           add byte [eax], al
            0x00405d8e      0000           add byte [eax], al
            0x00405d90      0000           add byte [eax], al
            0x00405d92      0000           add byte [eax], al
            0x00405d94      0000           add byte [eax], al
            0x00405d96      0000           add byte [eax], al
            0x00405d98      0000           add byte [eax], al
            0x00405d9a      0000           add byte [eax], al
            0x00405d9c      0000           add byte [eax], al
            0x00405d9e      0000           add byte [eax], al
            0x00405da0      0000           add byte [eax], al
            0x00405da2      0000           add byte [eax], al
            0x00405da4      0000           add byte [eax], al
            0x00405da6      0000           add byte [eax], al
            0x00405da8      0000           add byte [eax], al
            0x00405daa      0000           add byte [eax], al
            0x00405dac      0000           add byte [eax], al
            0x00405dae      0000           add byte [eax], al
            0x00405db0      0000           add byte [eax], al
            0x00405db2      0000           add byte [eax], al
            0x00405db4      0000           add byte [eax], al
            0x00405db6      0000           add byte [eax], al
            0x00405db8      0000           add byte [eax], al
            0x00405dba      0000           add byte [eax], al
            0x00405dbc      0000           add byte [eax], al
            0x00405dbe      0000           add byte [eax], al
            0x00405dc0      0000           add byte [eax], al
            0x00405dc2      0000           add byte [eax], al
            0x00405dc4      0000           add byte [eax], al
            0x00405dc6      0000           add byte [eax], al
            0x00405dc8      0000           add byte [eax], al
            0x00405dca      0000           add byte [eax], al
            0x00405dcc      0000           add byte [eax], al
            0x00405dce      0000           add byte [eax], al
            0x00405dd0      0000           add byte [eax], al
            0x00405dd2      0000           add byte [eax], al
            0x00405dd4      0000           add byte [eax], al
            0x00405dd6      0000           add byte [eax], al
            0x00405dd8      0000           add byte [eax], al
            0x00405dda      0000           add byte [eax], al
            0x00405ddc      0000           add byte [eax], al
            0x00405dde      0000           add byte [eax], al
            0x00405de0      0000           add byte [eax], al
            0x00405de2      0000           add byte [eax], al
            0x00405de4      0000           add byte [eax], al
            0x00405de6      0000           add byte [eax], al
            0x00405de8      0000           add byte [eax], al
            0x00405dea      0000           add byte [eax], al
            0x00405dec      0000           add byte [eax], al
            0x00405dee      0000           add byte [eax], al
            0x00405df0      0000           add byte [eax], al
            0x00405df2      0000           add byte [eax], al
            0x00405df4      0000           add byte [eax], al
            0x00405df6      0000           add byte [eax], al
            0x00405df8      0000           add byte [eax], al
            0x00405dfa      0000           add byte [eax], al
            0x00405dfc      0000           add byte [eax], al
            0x00405dfe      0000           add byte [eax], al
            0x00405e00      0000           add byte [eax], al
            0x00405e02      0000           add byte [eax], al
            0x00405e04      0000           add byte [eax], al
            0x00405e06      0000           add byte [eax], al
            0x00405e08      0000           add byte [eax], al
            0x00405e0a      0000           add byte [eax], al
            0x00405e0c      0000           add byte [eax], al
            0x00405e0e      0000           add byte [eax], al
            0x00405e10      0000           add byte [eax], al
            0x00405e12      0000           add byte [eax], al
            0x00405e14      0000           add byte [eax], al
            0x00405e16      0000           add byte [eax], al
            0x00405e18      0000           add byte [eax], al
            0x00405e1a      0000           add byte [eax], al
            0x00405e1c      0000           add byte [eax], al
            0x00405e1e      0000           add byte [eax], al
            0x00405e20      0000           add byte [eax], al
            0x00405e22      0000           add byte [eax], al
            0x00405e24      0000           add byte [eax], al
            0x00405e26      0000           add byte [eax], al
            0x00405e28      0000           add byte [eax], al
            0x00405e2a      0000           add byte [eax], al
            0x00405e2c      0000           add byte [eax], al
            0x00405e2e      0000           add byte [eax], al
            0x00405e30      0000           add byte [eax], al
            0x00405e32      0000           add byte [eax], al
            0x00405e34      0000           add byte [eax], al
            0x00405e36      0000           add byte [eax], al
            0x00405e38      0000           add byte [eax], al
            0x00405e3a      0000           add byte [eax], al
            0x00405e3c      0000           add byte [eax], al
            0x00405e3e      0000           add byte [eax], al
            0x00405e40      0000           add byte [eax], al
            0x00405e42      0000           add byte [eax], al
            0x00405e44      0000           add byte [eax], al
            0x00405e46      0000           add byte [eax], al
            0x00405e48      0000           add byte [eax], al
            0x00405e4a      0000           add byte [eax], al
            0x00405e4c      0000           add byte [eax], al
            0x00405e4e      0000           add byte [eax], al
            0x00405e50      0000           add byte [eax], al
            0x00405e52      0000           add byte [eax], al
            0x00405e54      0000           add byte [eax], al
            0x00405e56      0000           add byte [eax], al
            0x00405e58      0000           add byte [eax], al
            0x00405e5a      0000           add byte [eax], al
            0x00405e5c      0000           add byte [eax], al
            0x00405e5e      0000           add byte [eax], al
            0x00405e60      0000           add byte [eax], al
            0x00405e62      0000           add byte [eax], al
            0x00405e64      0000           add byte [eax], al
            0x00405e66      0000           add byte [eax], al
            0x00405e68      0000           add byte [eax], al
            0x00405e6a      0000           add byte [eax], al
            0x00405e6c      0000           add byte [eax], al
            0x00405e6e      0000           add byte [eax], al
            0x00405e70      0000           add byte [eax], al
            0x00405e72      0000           add byte [eax], al
            0x00405e74      0000           add byte [eax], al
            0x00405e76      0000           add byte [eax], al
            0x00405e78      0000           add byte [eax], al
            0x00405e7a      0000           add byte [eax], al
            0x00405e7c      0000           add byte [eax], al
            0x00405e7e      0000           add byte [eax], al
            0x00405e80      0000           add byte [eax], al
            0x00405e82      0000           add byte [eax], al
            0x00405e84      0000           add byte [eax], al
            0x00405e86      0000           add byte [eax], al
            0x00405e88      0000           add byte [eax], al
            0x00405e8a      0000           add byte [eax], al
            0x00405e8c      0000           add byte [eax], al
            0x00405e8e      0000           add byte [eax], al
            0x00405e90      0000           add byte [eax], al
            0x00405e92      0000           add byte [eax], al
            0x00405e94      0000           add byte [eax], al
            0x00405e96      0000           add byte [eax], al
            0x00405e98      0000           add byte [eax], al
            0x00405e9a      0000           add byte [eax], al
            0x00405e9c      0000           add byte [eax], al
            0x00405e9e      0000           add byte [eax], al
            0x00405ea0      0000           add byte [eax], al
            0x00405ea2      0000           add byte [eax], al
            0x00405ea4      0000           add byte [eax], al
            0x00405ea6      0000           add byte [eax], al
            0x00405ea8      0000           add byte [eax], al
            0x00405eaa      0000           add byte [eax], al
            0x00405eac      0000           add byte [eax], al
            0x00405eae      0000           add byte [eax], al
            0x00405eb0      0000           add byte [eax], al
            0x00405eb2      0000           add byte [eax], al
            0x00405eb4      0000           add byte [eax], al
            0x00405eb6      0000           add byte [eax], al
            0x00405eb8      0000           add byte [eax], al
            0x00405eba      0000           add byte [eax], al
            0x00405ebc      0000           add byte [eax], al
            0x00405ebe      0000           add byte [eax], al
            0x00405ec0      0000           add byte [eax], al
            0x00405ec2      0000           add byte [eax], al
            0x00405ec4      0000           add byte [eax], al
            0x00405ec6      0000           add byte [eax], al
            0x00405ec8      0000           add byte [eax], al
            0x00405eca      0000           add byte [eax], al
            0x00405ecc      0000           add byte [eax], al
            0x00405ece      0000           add byte [eax], al
            0x00405ed0      0000           add byte [eax], al
            0x00405ed2      0000           add byte [eax], al
            0x00405ed4      0000           add byte [eax], al
            0x00405ed6      0000           add byte [eax], al
            0x00405ed8      0000           add byte [eax], al
            0x00405eda      0000           add byte [eax], al
            0x00405edc      0000           add byte [eax], al
            0x00405ede      0000           add byte [eax], al
            0x00405ee0      0000           add byte [eax], al
            0x00405ee2      0000           add byte [eax], al
            0x00405ee4      0000           add byte [eax], al
            0x00405ee6      0000           add byte [eax], al
            0x00405ee8      0000           add byte [eax], al
            0x00405eea      0000           add byte [eax], al
            0x00405eec      0000           add byte [eax], al
            0x00405eee      0000           add byte [eax], al
            0x00405ef0      0000           add byte [eax], al
            0x00405ef2      0000           add byte [eax], al
            0x00405ef4      0000           add byte [eax], al
            0x00405ef6      0000           add byte [eax], al
            0x00405ef8      0000           add byte [eax], al
            0x00405efa      0000           add byte [eax], al
            0x00405efc      0000           add byte [eax], al
            0x00405efe      0000           add byte [eax], al
            0x00405f00      0000           add byte [eax], al
            0x00405f02      0000           add byte [eax], al
            0x00405f04      0000           add byte [eax], al
            0x00405f06      0000           add byte [eax], al
            0x00405f08      0000           add byte [eax], al
            0x00405f0a      0000           add byte [eax], al
            0x00405f0c      0000           add byte [eax], al
            0x00405f0e      0000           add byte [eax], al
            0x00405f10      0000           add byte [eax], al
            0x00405f12      0000           add byte [eax], al
            0x00405f14      0000           add byte [eax], al
            0x00405f16      0000           add byte [eax], al
            0x00405f18      0000           add byte [eax], al
            0x00405f1a      0000           add byte [eax], al
            0x00405f1c      0000           add byte [eax], al
            0x00405f1e      0000           add byte [eax], al
            0x00405f20      0000           add byte [eax], al
            0x00405f22      0000           add byte [eax], al
            0x00405f24      0000           add byte [eax], al
            0x00405f26      0000           add byte [eax], al
            0x00405f28      0000           add byte [eax], al
            0x00405f2a      0000           add byte [eax], al
            0x00405f2c      0000           add byte [eax], al
            0x00405f2e      0000           add byte [eax], al
            0x00405f30      0000           add byte [eax], al
            0x00405f32      0000           add byte [eax], al
            0x00405f34      0000           add byte [eax], al
            0x00405f36      0000           add byte [eax], al
            0x00405f38      0000           add byte [eax], al
            0x00405f3a      0000           add byte [eax], al
            0x00405f3c      0000           add byte [eax], al
            0x00405f3e      0000           add byte [eax], al
            0x00405f40      0000           add byte [eax], al
            0x00405f42      0000           add byte [eax], al
            0x00405f44      0000           add byte [eax], al
            0x00405f46      0000           add byte [eax], al
            0x00405f48      0000           add byte [eax], al
            0x00405f4a      0000           add byte [eax], al
            0x00405f4c      0000           add byte [eax], al
            0x00405f4e      0000           add byte [eax], al
            0x00405f50      0000           add byte [eax], al
            0x00405f52      0000           add byte [eax], al
            0x00405f54      0000           add byte [eax], al
            0x00405f56      0000           add byte [eax], al
            0x00405f58      0000           add byte [eax], al
            0x00405f5a      0000           add byte [eax], al
            0x00405f5c      0000           add byte [eax], al
            0x00405f5e      0000           add byte [eax], al
            0x00405f60      0000           add byte [eax], al
            0x00405f62      0000           add byte [eax], al
            0x00405f64      0000           add byte [eax], al
            0x00405f66      0000           add byte [eax], al
            0x00405f68      0000           add byte [eax], al
            0x00405f6a      0000           add byte [eax], al
            0x00405f6c      0000           add byte [eax], al
            0x00405f6e      0000           add byte [eax], al
            0x00405f70      0000           add byte [eax], al
            0x00405f72      0000           add byte [eax], al
            0x00405f74      0000           add byte [eax], al
            0x00405f76      0000           add byte [eax], al
            0x00405f78      0000           add byte [eax], al
            0x00405f7a      0000           add byte [eax], al
            0x00405f7c      0000           add byte [eax], al
            0x00405f7e      0000           add byte [eax], al
            0x00405f80      0000           add byte [eax], al
            0x00405f82      0000           add byte [eax], al
            0x00405f84      0000           add byte [eax], al
            0x00405f86      0000           add byte [eax], al
            0x00405f88      0000           add byte [eax], al
            0x00405f8a      0000           add byte [eax], al
            0x00405f8c      0000           add byte [eax], al
            0x00405f8e      0000           add byte [eax], al
            0x00405f90      0000           add byte [eax], al
            0x00405f92      0000           add byte [eax], al
            0x00405f94      0000           add byte [eax], al
            0x00405f96      0000           add byte [eax], al
            0x00405f98      0000           add byte [eax], al
            0x00405f9a      0000           add byte [eax], al
            0x00405f9c      0000           add byte [eax], al
            0x00405f9e      0000           add byte [eax], al
            0x00405fa0      0000           add byte [eax], al
            0x00405fa2      0000           add byte [eax], al
            0x00405fa4      0000           add byte [eax], al
            0x00405fa6      0000           add byte [eax], al
            0x00405fa8      0000           add byte [eax], al
            0x00405faa      0000           add byte [eax], al
            0x00405fac      0000           add byte [eax], al
            0x00405fae      0000           add byte [eax], al
            0x00405fb0      0000           add byte [eax], al
            0x00405fb2      0000           add byte [eax], al
            0x00405fb4      0000           add byte [eax], al
            0x00405fb6      0000           add byte [eax], al
            0x00405fb8      0000           add byte [eax], al
            0x00405fba      0000           add byte [eax], al
            0x00405fbc      0000           add byte [eax], al
            0x00405fbe      0000           add byte [eax], al
            0x00405fc0      0000           add byte [eax], al
            0x00405fc2      0000           add byte [eax], al
            0x00405fc4      0000           add byte [eax], al
            0x00405fc6      0000           add byte [eax], al
            0x00405fc8      0000           add byte [eax], al
            0x00405fca      0000           add byte [eax], al
            0x00405fcc      0000           add byte [eax], al
            0x00405fce      0000           add byte [eax], al
            0x00405fd0      0000           add byte [eax], al
            0x00405fd2      0000           add byte [eax], al
            0x00405fd4      0000           add byte [eax], al
            0x00405fd6      0000           add byte [eax], al
            0x00405fd8      0000           add byte [eax], al
            0x00405fda      0000           add byte [eax], al
            0x00405fdc      0000           add byte [eax], al
            0x00405fde      0000           add byte [eax], al
            0x00405fe0      0000           add byte [eax], al
            0x00405fe2      0000           add byte [eax], al
            0x00405fe4      0000           add byte [eax], al
            0x00405fe6      0000           add byte [eax], al
            0x00405fe8      0000           add byte [eax], al
            0x00405fea      0000           add byte [eax], al
            0x00405fec      0000           add byte [eax], al
            0x00405fee      0000           add byte [eax], al
            0x00405ff0      0000           add byte [eax], al
            0x00405ff2      0000           add byte [eax], al
            0x00405ff4      0000           add byte [eax], al
            0x00405ff6      0000           add byte [eax], al
            0x00405ff8      0000           add byte [eax], al
            0x00405ffa      0000           add byte [eax], al
            0x00405ffc      0000           add byte [eax], al
            0x00405ffe      0000           add byte [eax], al
            ;-- section..rsrc:
            0x00406000      0000           add byte [eax], al          ; [05] sr-- section size 8192 named .rsrc
            0x00406002      0000           add byte [eax], al
            0x00406004      e24f           loop 0x406055
            0x00406006      a834           test al, 0x34               ; 52
            0x00406008      0000           add byte [eax], al
            0x0040600a      0000           add byte [eax], al
            0x0040600c      0000           add byte [eax], al
            0x0040600e      0500020000     add eax, 0x200              ; 512
            0x00406013      0038           add byte [eax], bh
            0x00406015      0000           add byte [eax], al
            0x00406017      800300         add byte [ebx], 0
            0x0040601a      0000           add byte [eax], al
            0x0040601c      50             push eax
            0x0040601d      0000           add byte [eax], al
            0x0040601f      80040000       add byte [eax + eax], 0
            0x00406023      006800         add byte [eax], ch
            0x00406026      008005000000   add byte [eax + 5], al
            0x0040602c      800000         add byte [eax], 0
            0x0040602f      800e00         or byte [esi], 0
            0x00406032      0000           add byte [eax], al
            0x00406034      a000008000     mov al, byte [0x800000]     ; [0x800000:1]=255
            0x00406039      0000           add byte [eax], al
            0x0040603b      00e2           add dl, ah
            0x0040603d      4f             dec edi
            0x0040603e      a834           test al, 0x34               ; 52
            0x00406040      0000           add byte [eax], al
            0x00406042      0000           add byte [eax], al
            0x00406044      0000           add byte [eax], al
            0x00406046      0100           add dword [eax], eax
            0x00406048      e703           out 3, eax                  ; IO HELLO WORLD
            0x0040604a      0000           add byte [eax], al
            0x0040604c      b800008000     mov eax, 0x800000
            0x00406051      0000           add byte [eax], al
            0x00406053      00e2           add dl, ah
            0x00406055      4f             dec edi
            0x00406056      a834           test al, 0x34               ; 52
            0x00406058      0000           add byte [eax], al
            0x0040605a      0000           add byte [eax], al
            0x0040605c      0000           add byte [eax], al
            0x0040605e      0100           add dword [eax], eax
            0x00406060      0100           add dword [eax], eax
            0x00406062      0000           add byte [eax], al
            0x00406064      d000           rol byte [eax], 1
            0x00406066      008000000000   add byte [eax], al
            0x0040606c      e24f           loop 0x4060bd
            0x0040606e      a834           test al, 0x34               ; 52
            0x00406070      0000           add byte [eax], al
            0x00406072      0000           add byte [eax], al
            0x00406074      0100           add dword [eax], eax
            0x00406076      0000           add byte [eax], al
            0x00406078      a801           test al, 1                  ; 1
            0x0040607a      0080e8000080   add byte [eax - 0x7fffff18], al
            0x00406080      0000           add byte [eax], al
            0x00406082      0000           add byte [eax], al
            0x00406084      e24f           loop 0x4060d5
            0x00406086      a834           test al, 0x34               ; 52
            0x00406088      0000           add byte [eax], al
            0x0040608a      0000           add byte [eax], al
            0x0040608c      0200           add al, byte [eax]
            0x0040608e      0000           add byte [eax], al
            0x00406090      b201           mov dl, 1
            0x00406092      008000010080   add byte [eax - 0x7fffff00], al
            0x00406098      c60100         mov byte [ecx], 0
            0x0040609b      801801         sbb byte [eax], 1
            0x0040609e      008000000000   add byte [eax], al
            0x004060a4      e24f           loop 0x4060f5
            0x004060a6      a834           test al, 0x34               ; 52
            0x004060a8      0000           add byte [eax], al
            0x004060aa      0000           add byte [eax], al
            0x004060ac      0000           add byte [eax], al
            0x004060ae      0100           add dword [eax], eax
            0x004060b0      640000         add byte fs:[eax], al
            0x004060b3      0030           add byte [eax], dh
            0x004060b5      0100           add dword [eax], eax
            0x004060b7      800000         add byte [eax], 0
            0x004060ba      0000           add byte [eax], al
            0x004060bc      e24f           loop 0x40610d
            0x004060be      a834           test al, 0x34               ; 52
            0x004060c0      0000           add byte [eax], al
            0x004060c2      0000           add byte [eax], al
            0x004060c4      0000           add byte [eax], al
            0x004060c6      0100           add dword [eax], eax
            0x004060c8      0000           add byte [eax], al
            0x004060ca      0000           add byte [eax], al
            0x004060cc      48             dec eax
            0x004060cd      0100           add dword [eax], eax
            0x004060cf      0000           add byte [eax], al
            0x004060d1      0000           add byte [eax], al
            0x004060d3      00e2           add dl, ah
            0x004060d5      4f             dec edi
            0x004060d6      a834           test al, 0x34               ; 52
            0x004060d8      0000           add byte [eax], al
            0x004060da      0000           add byte [eax], al
            0x004060dc      0000           add byte [eax], al
            0x004060de      0100           add dword [eax], eax
            0x004060e0      0000           add byte [eax], al
            0x004060e2      0000           add byte [eax], al
            0x004060e4      58             pop eax
            0x004060e5      0100           add dword [eax], eax
            0x004060e7      0000           add byte [eax], al
            0x004060e9      0000           add byte [eax], al
            0x004060eb      00e2           add dl, ah
            0x004060ed      4f             dec edi
            0x004060ee      a834           test al, 0x34               ; 52
            0x004060f0      0000           add byte [eax], al
            0x004060f2      0000           add byte [eax], al
            0x004060f4      0000           add byte [eax], al
            0x004060f6      0100           add dword [eax], eax
            0x004060f8      0000           add byte [eax], al
            0x004060fa      0000           add byte [eax], al
            0x004060fc      6801000000     push 1                      ; 1
            0x00406101      0000           add byte [eax], al
            0x00406103      00e2           add dl, ah
            0x00406105      4f             dec edi
            0x00406106      a834           test al, 0x34               ; 52
            0x00406108      0000           add byte [eax], al
            0x0040610a      0000           add byte [eax], al
            0x0040610c      0000           add byte [eax], al
            0x0040610e      0100           add dword [eax], eax
            0x00406110      0000           add byte [eax], al
            0x00406112      0000           add byte [eax], al
            0x00406114      7801           js 0x406117
            0x00406116      0000           add byte [eax], al
            0x00406118      0000           add byte [eax], al
            0x0040611a      0000           add byte [eax], al
            0x0040611c      e24f           loop 0x40616d
            0x0040611e      a834           test al, 0x34               ; 52
            0x00406120      0000           add byte [eax], al
            0x00406122      0000           add byte [eax], al
            0x00406124      0000           add byte [eax], al
            0x00406126      0100           add dword [eax], eax
            0x00406128      0000           add byte [eax], al
            0x0040612a      0000           add byte [eax], al
            0x0040612c      8801           mov byte [ecx], al
            0x0040612e      0000           add byte [eax], al
            0x00406130      0000           add byte [eax], al
            0x00406132      0000           add byte [eax], al
            0x00406134      e24f           loop 0x406185
            0x00406136      a834           test al, 0x34               ; 52
            0x00406138      0000           add byte [eax], al
            0x0040613a      0000           add byte [eax], al
            0x0040613c      0000           add byte [eax], al
            0x0040613e      0100           add dword [eax], eax
            0x00406140      0000           add byte [eax], al
            0x00406142      0000           add byte [eax], al
            0x00406144      98             cwde
            0x00406145      0100           add dword [eax], eax
            0x00406147      00dc           add ah, bl
            0x00406149      61             popal
            0x0040614a      0000           add byte [eax], al
            0x0040614c      e80a000000     call 0x40615b
            0x00406151      0000           add byte [eax], al
            0x00406153      0000           add byte [eax], al
            0x00406155      0000           add byte [eax], al
            0x00406157      00c4           add ah, al
            0x00406159      6c             insb byte es:[edi], dx
            0x0040615a      0000           add byte [eax], al
            0x0040615c      e802000000     call 0x406163
            0x00406161      0000           add byte [eax], al
            0x00406163      0000           add byte [eax], al
            0x00406165      0000           add byte [eax], al
            0x00406167      00ac6f000058.  add byte [edi + ebp*2 + 0x580000], ch
            0x0040616e      0000           add byte [eax], al
            0x00406170      0000           add byte [eax], al
            0x00406172      0000           add byte [eax], al
            0x00406174      0000           add byte [eax], al
            0x00406176      0000           add byte [eax], al
            0x00406178      0470           add al, 0x70                ; 112
            0x0040617a      0000           add byte [eax], al
            0x0040617c      90             nop
            0x0040617d      0100           add dword [eax], eax
            0x0040617f      0000           add byte [eax], al
            0x00406181      0000           add byte [eax], al
            0x00406183      0000           add byte [eax], al
            0x00406185      0000           add byte [eax], al
            0x00406187      00947100000e.  add byte [ecx + esi*2 + 0x10e0000], dl
            0x0040618e      0000           add byte [eax], al
            0x00406190      0000           add byte [eax], al
            0x00406192      0000           add byte [eax], al
            0x00406194      0000           add byte [eax], al
            0x00406196      0000           add byte [eax], al
            0x00406198      a4             movsb byte es:[edi], byte ptr [esi]
            0x00406199      7200           jb 0x40619b
            0x0040619b      001400         add byte [eax + eax], dl
            0x0040619e      0000           add byte [eax], al
            0x004061a0      0000           add byte [eax], al
            0x004061a2      0000           add byte [eax], al
            0x004061a4      0000           add byte [eax], al
            0x004061a6      0000           add byte [eax], al
            0x004061a8      0400           add al, 0
            ;-- str.MENU_tDLG_ABOUT_tDLG_REGIS:
            0x004061aa     .string "MENU\tDLG_ABOUT\tDLG_REGIS" ; len=50
            ;-- resource.0:
            0x004061dc      2800           sub byte [eax], al
            0x004061de      0000           add byte [eax], al
            0x004061e0      6a00           push 0
            0x004061e2      0000           add byte [eax], al
            0x004061e4      3000           xor byte [eax], al
            0x004061e6      0000           add byte [eax], al
            0x004061e8      0100           add dword [eax], eax
            0x004061ea      0400           add al, 0
            0x004061ec      0000           add byte [eax], al
            0x004061ee      0000           add byte [eax], al
            0x004061f0      800a00         or byte [edx], 0
            0x004061f3      0000           add byte [eax], al
            0x004061f5      0000           add byte [eax], al
            0x004061f7      0000           add byte [eax], al
            0x004061f9      0000           add byte [eax], al
            0x004061fb      00             invalid
            0x004061fc      0000           add byte [eax], al
            0x004061fe      0000           add byte [eax], al
            0x00406200      1000           adc byte [eax], al
            0x00406202      0000           add byte [eax], al
            0x00406204      0000           add byte [eax], al
            0x00406206      0000           add byte [eax], al
            0x00406208      0000           add byte [eax], al
            0x0040620a      800000         add byte [eax], 0
            0x0040620d      800000         add byte [eax], 0
            0x00406210      008080008000   add byte [eax + 0x800080], al
            0x00406216      0000           add byte [eax], al
            0x00406218      800080         add byte [eax], 0x80        ; [0x80:1]=255 ; 128
            0x0040621b      0080800000c0   add byte [eax - 0x3fffff80], al
            0x00406221      c0c000         rol al, 0
            0x00406224      808080000000.  add byte [eax + 0x80], 0xff ; [0xff:1]=255 ; 255
            0x0040622b      0000           add byte [eax], al
            0x0040622d      ff00           inc dword [eax]
            0x0040622f      0000           add byte [eax], al
            0x00406231      ff             invalid
            0x00406232      ff00           inc dword [eax]
            0x00406234      ff00           inc dword [eax]
            0x00406236      0000           add byte [eax], al
            0x00406238      ff00           inc dword [eax]
            0x0040623a      ff00           inc dword [eax]
            0x0040623c      ff             invalid
            0x0040623d      ff00           inc dword [eax]
            0x0040623f      00ff           add bh, bh
            0x00406241      ff             invalid
            0x00406242      ff00           inc dword [eax]
            0x00406244     .string "wwww" ; len=5
            0x00406249      7887           js 0x4061d2
            0x0040624b      887887         mov byte [eax - 0x79], bh
            0x0040624e      7777           ja 0x4062c7
            0x00406250      7788           ja 0x4061da
            0x00406252     .string "wwwx" ; len=5
            0x00406257      887887         mov byte [eax - 0x79], bh
            0x0040625a      887887         mov byte [eax - 0x79], bh
            0x0040625d      878878878878   xchg dword [eax + 0x78888778], ecx
            0x00406263      878777887887   xchg dword [edi - 0x78877789], eax
            0x00406269      887887         mov byte [eax - 0x79], bh
            0x0040626c      887887         mov byte [eax - 0x79], bh
            0x0040626f  ~   887877         mov byte [eax + 0x77], bh
            ;-- str.xwwwwwwww:
            0x00406270     .string "xwwwwwwww" ; len=10
            0x0040627a      0000           add byte [eax], al
            0x0040627c      7777           ja 0x4062f5
            0x0040627e      7888           js 0x406208
            0x00406280      888888888888   mov byte [eax - 0x77777778], cl
            0x00406286      888788888887   mov byte [edi - 0x78777778], al
            0x0040628c      888888888888   mov byte [eax - 0x77777778], cl
            0x00406292      888888888888   mov byte [eax - 0x77777778], cl
            0x00406298      888888888888   mov byte [eax - 0x77777778], cl
            0x0040629e      888888888888   mov byte [eax - 0x77777778], cl
            0x004062a4      888888888888   mov byte [eax - 0x77777778], cl
            0x004062aa     .string "wwwwwww" ; len=8
            0x004062b2      0000           add byte [eax], al
            0x004062b4      7778           ja 0x40632e
            0x004062b6      888888888888   mov byte [eax - 0x77777778], cl
            0x004062bc      888888888888   mov byte [eax - 0x77777778], cl
            0x004062c2      888888888888   mov byte [eax - 0x77777778], cl
            0x004062c8      888888888888   mov byte [eax - 0x77777778], cl
            0x004062ce      888888888888   mov byte [eax - 0x77777778], cl
            0x004062d4      888888888888   mov byte [eax - 0x77777778], cl
            0x004062da      888888888888   mov byte [eax - 0x77777778], cl
            0x004062e0      888888887777   mov byte [eax + 0x77778888], cl
            0x004062e6     .string "wwwww" ; len=6
            0x004062ea      0000           add byte [eax], al
            0x004062ec      7788           ja 0x406276
            0x004062ee      888888888888   mov byte [eax - 0x77777778], cl
            0x004062f4      888888888888   mov byte [eax - 0x77777778], cl
            0x004062fa      88             invalid
            0x004062fb      88             invalid
            0x004062fc      888888888888   mov byte [eax - 0x77777778], cl
            0x00406302      888888888888   mov byte [eax - 0x77777778], cl
            0x00406308      888888888888   mov byte [eax - 0x77777778], cl
            0x0040630e      888888888888   mov byte [eax - 0x77777778], cl
            0x00406314      888888888888   mov byte [eax - 0x77777778], cl
            0x0040631a      888887777777   mov byte [eax + 0x77777787], cl
            0x00406320     .string "wwww" ; len=5
            0x00406322      0000           add byte [eax], al
            0x00406324      7788           ja 0x4062ae
            0x00406326      888855858585   mov byte [eax - 0x7a7a7aab], cl
            0x0040632c      858888888888   test dword [eax - 0x77777778], ecx
            0x00406332      888888858585   mov byte [eax - 0x7a7a7a78], cl
            0x00406338      858585858588   test dword [ebp - 0x777a7a7b], eax
            0x0040633e      58             pop eax
            0x0040633f      58             pop eax
            0x00406340      858858585888   test dword [eax - 0x77a7a7a8], ecx
            0x00406346  ~   858858585858   test dword [eax + 0x58585858], ecx
            ;-- str.XXXXXXXXX:
            0x00406348     .string "XXXXXXXXX" ; len=10
            0x00406352      888888877777   mov byte [eax + 0x77778788], cl
            0x00406358      7700           ja 0x40635a
            0x0040635a      0000           add byte [eax], al
            0x0040635c      7888           js 0x4062e6
            0x0040635e  ~   88544444       mov byte [esp + eax*2 + 0x44], dl
            ;-- str.TDDDDDDX:
            0x0040635f     .string "TDDDDDDX" ; len=9
            0x00406368      85444488       test dword [esp + eax*2 - 0x78], eax
            0x0040636c  ~   85444444       test dword [esp + eax*2 + 0x44], eax
            ;-- str.DDDDDDDDDDDDDDDDTDDDDDDDDDDDU:
            0x0040636d     .string "DDDDDDDDDDDDDDDDTDDDDDDDDDDDU" ; len=30
            0x0040638b      888888777777   mov byte [eax + 0x77777788], cl
            0x00406391      0000           add byte [eax], al
            0x00406393      007888         add byte [eax - 0x78], bh
            0x00406396  ~   85444444       test dword [esp + eax*2 + 0x44], eax
            ;-- str.DDDDDDDE:
            0x00406397     .string "DDDDDDDE" ; len=9
            ;-- str.TDDXTDDDDDDDDDDDDDDDDDDDDDDDDDDDDDE:
            0x004063a0     .string "TDDXTDDDDDDDDDDDDDDDDDDDDDDDDDDDDDE" ; len=36
            0x004063c4      888887777700   mov byte [eax + 0x777787], cl
            0x004063ca      0000           add byte [eax], al
            0x004063cc  ~   888884444444   mov byte [eax + 0x44444484], cl
            ;-- str.DDDDDDDDUDDDEDDDDDDDDDDDDDDDDDDDDDDDDDDDDDDDE:
            0x004063cf     .string "DDDDDDDDUDDDEDDDDDDDDDDDDDDDDDDDDDDDDDDDDDDDE" ; len=46
            0x004063fd      888877770000   mov byte [eax + 0x7777], cl
            0x00406403      007888         add byte [eax - 0x78], bh
            0x00406406      54             push esp
            0x00406407      48             dec eax
            0x00406408      7788           ja 0x406392
            0x0040640a      888887784444   mov byte [eax + 0x44447887], cl
            0x00406410     .string "xDDD" ; len=5
            ;-- str.DDDGx:
            0x00406412     .string "DDDGx" ; len=6
            0x00406418      888888777f74   mov byte [eax + 0x747f7788], cl
            0x0040641e      8f             invalid
            0x0040641f     .string "wwww" ; len=5
            0x00406424      f8             clc
            0x00406425      44             inc esp
            0x00406426      877777         xchg dword [edi + 0x77], esi
            0x00406429      888888887777   mov byte [eax + 0x77778888], cl
            0x0040642f      7788           ja 0x4063b9
            ;-- str.DDDX:
            0x00406431     .string "DDDX" ; len=5
            0x00406436      888777000000   mov byte [edi + 0x77], al
            0x0040643c      88885448ffff   mov byte [eax - 0xb7ac], cl
            0x00406442      ff             invalid
            0x00406443      ff             invalid
            0x00406444      ff             invalid
            0x00406445      f8             clc
            0x00406446      44             inc esp
            0x00406447      44             inc esp
            0x00406448      44             inc esp
            0x00406449      ff8444444fff.  inc dword [esp + eax*2 - 0xb0bc]
            0x00406450      ff             invalid
            0x00406451      ff             invalid
            0x00406452      ff             invalid
            0x00406453      ff             invalid
            0x00406454      ff7487ff       push dword [edi + eax*4 - 1]
            0x00406458      ff             invalid
            0x00406459      ff             invalid
            0x0040645a      fff7           push edi
            0x0040645c      7444           je 0x4064a2
            0x0040645e      7fff           jg 0x40645f
            0x00406460      ff             invalid
            0x00406461      ff             invalid
            0x00406462      ff             invalid
            0x00406463      ff             invalid
            0x00406464      ff             invalid
            0x00406465      ff             invalid
            0x00406466      ff             invalid
            0x00406467      ff             invalid
            0x00406468      fff7           push edi
            0x0040646a      84444588       test byte [ebp + eax*2 - 0x78], al
            0x0040646e      888777000000   mov byte [edi + 0x77], al
            0x00406474      7888           js 0x4063fe
            0x00406476      8444887f       test byte [eax + ecx*4 + 0x7f], al
            0x0040647a      ff             invalid
            0x0040647b      ff             invalid
            0x0040647c      f8             clc
            0x0040647d      84444448       test byte [esp + eax*2 + 0x48], al
            0x00406481  ~   ff744444       push dword [esp + eax*2 + 0x44]
            ;-- str.tDDHw:
            0x00406482     .string "tDDHw" ; len=6
            0x00406488      ff             invalid
            0x00406489      ff             invalid
            0x0040648a      fff7           push edi
            0x0040648c     .string "xDDD" ; len=5
            0x00406491      fff7           push edi
            0x00406493     .string "DDDH" ; len=5
            0x00406498      ff             invalid
            0x00406499      ff             invalid
            0x0040649a      ff             invalid
            0x0040649b      ff             invalid
            0x0040649c      7888           js 0x406426
            0x0040649e      887fff         mov byte [edi - 1], bh
            0x004064a1      fff7           push edi
            0x004064a3      84445888       test byte [eax + ebx*2 - 0x78], al
            0x004064a7      887700         mov byte [edi], dh
            0x004064aa      0000           add byte [eax], al
            0x004064ac      7888           js 0x406436
            0x004064ae      85444448       test dword [esp + eax*2 + 0x48], eax
            0x004064b2      fff7           push edi
            0x004064b4     .string "DDDDG" ; len=6
            0x004064ba      f8             clc
            ;-- str.DDDDG:
            0x004064bb     .string "DDDDG" ; len=6
            0x004064c1      ff             invalid
            0x004064c2      ff8444444444.  inc dword [esp + eax*2 - 0x70bbbbbc]
            0x004064c9      fff7           push edi
            ;-- str.DDDDD:
            0x004064cb     .string "DDDDD" ; len=6
            0x004064d1      ff             invalid
            0x004064d2      fff7           push edi
            0x004064d4     .string "DDDD" ; len=5
            0x004064d9      ff             invalid
            0x004064da      ff             invalid
            0x004064db      f8             clc
            0x004064dc      44             inc esp
            0x004064dd      45             inc ebp
            0x004064de      888887000000   mov byte [eax + 0x87], cl
            0x004064e4      7888           js 0x40646e
            0x004064e6      88444444       mov byte [esp + eax*2 + 0x44], al
            0x004064ea      ff             invalid
            0x004064eb      f8             clc
            0x004064ec     .string "DDDD" ; len=5
            0x004064f1      ff             invalid
            0x004064f2      f8             clc
            0x004064f3     .string "DDDDH" ; len=6
            0x004064f9      ff             invalid
            0x004064fa      ff             invalid
            0x004064fb      84             invalid
            0x004064fc     .string "DDDD" ; len=5
            0x00406501      fff7           push edi
            ;-- str.DDTDD:
            0x00406503     .string "DDTDD" ; len=6
            0x00406509      ff             invalid
            0x0040650a      ff             invalid
            0x0040650b      f8             clc
            0x0040650c     .string "DDDDH" ; len=6
            0x00406512      ff             invalid
            0x00406513      ff8444888887.  inc dword [esp + eax*2 + 0x878888]
            0x0040651a      0000           add byte [eax], al
            0x0040651c      7788           ja 0x4064a6
            0x0040651e      888544447ff4   mov byte [ebp - 0xb80bbbc], al
            ;-- str.DDTD:
            0x00406524     .string "DDTD" ; len=5
            0x00406529      ff             invalid
            0x0040652a  ~   ff444554       inc dword [ebp + eax*2 + 0x54]
            ;-- str.DETDH:
            0x0040652b     .string "DETDH" ; len=6
            0x00406531      ff             invalid
            0x00406532  ~   ff8444485444.  inc dword [esp + eax*2 - 0x70bbabb8]
            ;-- str.DHTD:
            0x00406534     .string "DHTD" ; len=5
            0x00406539      fff7           push edi
            0x0040653b      44             inc esp
            0x0040653c      48             dec eax
            0x0040653d      885544         mov byte [ebp + 0x44], dl
            0x00406540      8f             invalid
            0x00406541      ff             invalid
            0x00406542      ff             invalid
            0x00406543      f8             clc
            0x00406544     .string "DEDDD" ; len=6
            0x0040654a      ff             invalid
            0x0040654b      fff4           push esp
            0x0040654d      44             inc esp
            0x0040654e      58             pop eax
            0x0040654f      888700000077   mov byte [edi + 0x77000000], al
            0x00406555      88888854447f   mov byte [eax + 0x7f445488], cl
            0x0040655b      f4             hlt
            0x0040655c      44             inc esp
            0x0040655d      884444ff       mov byte [esp + eax*2 - 1], al
            0x00406561      ff             invalid
            0x00406562      ff8444884448.  inc dword [esp + eax*2 - 0xb7bb78]
            0x00406569      ff             invalid
            0x0040656a      ff8445888444.  inc dword [ebp + eax*2 - 0x70bb7b78]
            0x00406571      fff7           push edi
            0x00406573      44             inc esp
            0x00406574      45             inc ebp
            0x00406575      8885448fffff   mov byte [ebp - 0x70bc], al
            0x0040657b      f8             clc
            0x0040657c      44             inc esp
            0x0040657d      48             dec eax
            0x0040657e      8544448f       test dword [esp + eax*2 - 0x71], eax
            0x00406582      ff             invalid
            0x00406583      ff             invalid
            0x00406584      f8             clc
            0x00406585      44             inc esp
            0x00406586      48             dec eax
            0x00406587      888700000077   mov byte [edi + 0x77000000], al
            0x0040658d      7888           js 0x406517
            0x0040658f      8854447f       mov byte [esp + eax*2 + 0x7f], dl
            0x00406593      f4             hlt
            ;-- str.DUDH:
            0x00406594     .string "DUDH" ; len=5
            0x00406599      ff             invalid
            0x0040659a  ~   ff744455       push dword [esp + eax*2 + 0x55]
            ;-- str.tDUDH:
            0x0040659b     .string "tDUDH" ; len=6
            0x004065a1      ff             invalid
            0x004065a2      ff444888       inc dword [eax + ecx*2 - 0x78]
            0x004065a6      54             push esp
            0x004065a7      44             inc esp
            0x004065a8      8f             invalid
            0x004065a9      fff7           push edi
            0x004065ab      44             inc esp
            0x004065ac      45             inc ebp
            0x004065ad      8888448fffff   mov byte [eax - 0x70bc], cl
            0x004065b3      f8             clc
            0x004065b4      44             inc esp
            0x004065b5      45             inc ebp
            0x004065b6      8885444fffff   mov byte [ebp - 0xb0bc], al
            0x004065bc      f74445888800.  test dword [ebp + eax*2 - 0x78], 0x88
            0x004065c4      7777           ja 0x40663d
            0x004065c6      888884447ff4   mov byte [eax - 0xb80bb7c], cl
            0x004065cc      44             inc esp
            0x004065cd      85444fff       test dword [edi + ecx*2 - 1], eax
            0x004065d1      ff             invalid
            0x004065d2      fff4           push esp
            0x004065d4     .string "DHDH" ; len=5
            0x004065d9      ff             invalid
            0x004065da      ff444588       inc dword [ebp + eax*2 - 0x78]
            0x004065de      54             push esp
            0x004065df      44             inc esp
            0x004065e0      8f             invalid
            0x004065e1      fff7           push edi
            0x004065e3      44             inc esp
            0x004065e4      45             inc ebp
            0x004065e5      8885448fffff   mov byte [ebp - 0x70bc], al
            0x004065eb      f8             clc
            0x004065ec      44             inc esp
            0x004065ed      45             inc ebp
            0x004065ee      8888444fffff   mov byte [eax - 0xb0bc], cl
            0x004065f4      f74445888700.  test dword [ebp + eax*2 - 0x78], 0x87
            0x004065fc      7777           ja 0x406675
            0x004065fe      88             invalid
            0x004065ff      88             invalid
            0x00406600      54             push esp
            0x00406601      44             inc esp
            0x00406602      7ff4           jg 0x4065f8
            0x00406604      44             inc esp
            0x00406605      54             push esp
            0x00406606      44             inc esp
            0x00406607      8f             invalid
            0x00406608      ff             invalid
            0x00406609      ff             invalid
            0x0040660a      fff7           push edi
            0x0040660c     .string "DEDH" ; len=5
            0x00406611      ff             invalid
            0x00406612      ff444888       inc dword [eax + ecx*2 - 0x78]
            0x00406616      84448fff       test byte [edi + ecx*4 - 1], al
            0x0040661a      f74448888544.  test dword [eax + ecx*2 - 0x78], 0xff8f4485
            0x00406622      ff             invalid
            0x00406623      f8             clc
            0x00406624      44             inc esp
            0x00406625      48             dec eax
            0x00406626      8885444fffff   mov byte [ebp - 0xb0bc], al
            0x0040662c      ff444888       inc dword [eax + ecx*2 - 0x78]
            0x00406630      8700           xchg dword [eax], eax
            0x00406632      0000           add byte [eax], al
            0x00406634      7777           ja 0x4066ad
            0x00406636      7888           js 0x4065c0
            0x00406638      54             push esp
            0x00406639      44             inc esp
            0x0040663a      8f             invalid
            0x0040663b      f4             hlt
            0x0040663c      44             inc esp
            0x0040663d      54             push esp
            0x0040663e      44             inc esp
            0x0040663f      7fff           jg 0x406640
            0x00406641      fff7           push edi
            0x00406643  ~   ff444444       inc dword [esp + eax*2 + 0x44]
            ;-- str.DDDG:
            0x00406644     .string "DDDG" ; len=5
            0x00406649      ff             invalid
            0x0040664a      ff444588       inc dword [ebp + eax*2 - 0x78]
            0x0040664e      54             push esp
            0x0040664f      44             inc esp
            0x00406650      8f             invalid
            0x00406651      fff7           push edi
            0x00406653      44             inc esp
            0x00406654      45             inc ebp
            0x00406655      8885448fffff   mov byte [ebp - 0x70bc], al
            0x0040665b      f8             clc
            0x0040665c      44             inc esp
            0x0040665d      45             inc ebp
            0x0040665e      8885444fffff   mov byte [ebp - 0xb0bc], al
            0x00406664      ff444588       inc dword [ebp + eax*2 - 0x78]
            0x00406668      8800           mov byte [eax], al
            0x0040666a      0000           add byte [eax], al
            0x0040666c      7777           ja 0x4066e5
            0x0040666e      888884448ff8   mov byte [eax - 0x770bb7c], cl
            0x00406674      44             inc esp
            0x00406675      44             inc esp
            0x00406676      48             dec eax
            0x00406677      ff             invalid
            0x00406678      ff             invalid
            0x00406679      ff74ff84       push dword [edi + edi*8 - 0x7c]
            0x0040667d      44             inc esp
            0x0040667e      44             inc esp
            0x0040667f      47             inc edi
            0x00406680      ff             invalid
            0x00406681      ff             invalid
            0x00406682      ff444588       inc dword [ebp + eax*2 - 0x78]
            0x00406686      84448fff       test byte [edi + ecx*4 - 1], al
            0x0040668a      f74445888844.  test dword [ebp + eax*2 - 0x78], 0xff8f4488
            0x00406692      ff             invalid
            0x00406693      f8             clc
            0x00406694      44             inc esp
            0x00406695      48             dec eax
            0x00406696      8884448fffff.  mov byte [esp + eax*2 - 0x8000071], al
            0x0040669d      44             inc esp
            0x0040669e      45             inc ebp
            0x0040669f      888700000077   mov byte [edi + 0x77000000], al
            0x004066a5      7778           ja 0x40671f
            0x004066a7      8854448f       mov byte [esp + eax*2 - 0x71], dl
            0x004066ab      f8             clc
            0x004066ac      44             inc esp
            0x004066ad      44             inc esp
            0x004066ae      47             inc edi
            0x004066af      ff             invalid
            0x004066b0      ff             invalid
            0x004066b1      ff848ff44444.  inc dword [edi + ecx*4 + 0x474444f4]
            0x004066b8      ff             invalid
            0x004066b9      ff             invalid
            0x004066ba      ff444888       inc dword [eax + ecx*2 - 0x78]
            0x004066be      54             push esp
            0x004066bf      44             inc esp
            0x004066c0      8f             invalid
            0x004066c1      fff7           push edi
            0x004066c3      44             inc esp
            0x004066c4      45             inc ebp
            0x004066c5      8885448fffff   mov byte [ebp - 0x70bc], al
            0x004066cb      f8             clc
            0x004066cc      44             inc esp
            0x004066cd      45             inc ebp
            0x004066ce      8544447f       test dword [esp + eax*2 + 0x7f], eax
            0x004066d2      ff             invalid
            0x004066d3      ff             invalid
            0x004066d4      f8             clc
            0x004066d5      44             inc esp
            0x004066d6      45             inc ebp
            0x004066d7      888800000077   mov byte [eax + 0x77000000], cl
            0x004066dd      7788           ja 0x406667
            0x004066df      8854448f       mov byte [esp + eax*2 - 0x71], dl
            0x004066e3      f8             clc
            0x004066e4      44             inc esp
            0x004066e5      44             inc esp
            0x004066e6      8f             invalid
            0x004066e7      ff             invalid
            0x004066e8      fff7           push edi
            0x004066ea      44             inc esp
            0x004066eb      4f             dec edi
            0x004066ec      f8             clc
            0x004066ed      44             inc esp
            0x004066ee      44             inc esp
            0x004066ef      47             inc edi
            0x004066f0      ff             invalid
            0x004066f1      ff             invalid
            0x004066f2      ff444588       inc dword [ebp + eax*2 - 0x78]
            0x004066f6      84448fff       test byte [edi + ecx*4 - 1], al
            0x004066fa      f7             invalid
            0x004066fb      44             inc esp
            0x004066fc      48             dec eax
            0x004066fd      88             invalid
            0x004066fe      85             invalid
            0x004066ff      44             inc esp
            0x00406700      8f             invalid
            0x00406701      ff             invalid
            0x00406702      ff             invalid
            0x00406703      f8             clc
            ;-- str.DDDDH:
            0x00406704     .string "DDDDH" ; len=6
            0x0040670a      ff             invalid
            0x0040670b      fff4           push esp
            0x0040670d      44             inc esp
            0x0040670e      48             dec eax
            0x0040670f      888700000077   mov byte [edi + 0x77000000], al
            0x00406715      7788           ja 0x40669f
            0x00406717      8884448ff844.  mov byte [esp + eax*2 + 0x4444f88f], al
            0x0040671e      7fff           jg 0x40671f
            0x00406720      ff             invalid
            0x00406721      f8             clc
            0x00406722      44             inc esp
            0x00406723      47             inc edi
            0x00406724      f7444447ffff.  test dword [esp + eax*2 + 0x47], 0x44ffffff
            0x0040672c      48             dec eax
            0x0040672d      8444448f       test byte [esp + eax*2 - 0x71], al
            0x00406731      fff7           push edi
            0x00406733      44             inc esp
            0x00406734      45             inc ebp
            0x00406735      8885448fffff   mov byte [ebp - 0x70bc], al
            0x0040673b      f8             clc
            0x0040673c     .string "DDDD" ; len=5
            0x00406741      ff             invalid
            0x00406742      ff             invalid
            0x00406743      ff8444588887.  inc dword [esp + eax*2 + 0x878858]
            0x0040674a      0000           add byte [eax], al
            0x0040674c      7777           ja 0x4067c5
            0x0040674e      888854448ff8   mov byte [eax - 0x770bbac], cl
            0x00406754      44             inc esp
            0x00406755      44             inc esp
            0x00406756      ff             invalid
            0x00406757      ff             invalid
            0x00406758      ff744444       push dword [esp + eax*2 + 0x44]
            0x0040675c      ff844447ffff.  inc dword [esp + eax*2 - 0xb9]
            ;-- str.DETDD:
            0x00406763     .string "DETDD" ; len=6
            0x00406769      fff7           push edi
            0x0040676b      44             inc esp
            0x0040676c      45             inc ebp
            0x0040676d      8888448fffff   mov byte [eax - 0x70bc], cl
            0x00406773      f8             clc
            0x00406774      44             inc esp
            0x00406775      44             inc esp
            0x00406776      44             inc esp
            0x00406777      87ff           xchg edi, edi
            0x00406779      ff             invalid
            0x0040677a      ff             invalid
            0x0040677b      f8             clc
            0x0040677c      44             inc esp
            0x0040677d      45             inc ebp
            0x0040677e      888887000000   mov byte [eax + 0x87], cl
            0x00406784      7777           ja 0x4067fd
            0x00406786      7888           js 0x406710
            0x00406788      84448ff8       test byte [edi + ecx*4 - 8], al
            0x0040678c      44             inc esp
            0x0040678d      48             dec eax
            0x0040678e      ff             invalid
            0x0040678f      ff             invalid
            0x00406790      ff8444447f74.  inc dword [esp + eax*2 + 0x44747f44]
            0x00406797      47             inc edi
            0x00406798      ff             invalid
            0x00406799      fff7           push edi
            ;-- str.DHDDD:
            0x0040679b     .string "DHDDD" ; len=6
            0x004067a1      fff7           push edi
            0x004067a3      44             inc esp
            0x004067a4      45             inc ebp
            0x004067a5      8885448fffff   mov byte [ebp - 0x70bc], al
            0x004067ab      ff7777         push dword [edi + 0x77]
            0x004067ae      7fff           jg 0x4067af
            0x004067b0      ff             invalid
            0x004067b1      fff7           push edi
            0x004067b3      84444888       test byte [eax + ecx*2 - 0x78], al
            0x004067b7      888700000077   mov byte [edi + 0x77000000], al
            0x004067bd      7778           ja 0x406837
            0x004067bf      8885448ff844   mov byte [ebp + 0x44f88f44], al
            0x004067c5      4f             dec edi
            0x004067c6      ff             invalid
            0x004067c7      ff             invalid
            0x004067c8      ff444444       inc dword [esp + eax*2 + 0x44]
            0x004067cc      8f             invalid
            0x004067cd      f8             clc
            0x004067ce      44             inc esp
            0x004067cf      47             inc edi
            0x004067d0      ff             invalid
            0x004067d1      fff7           push edi
            ;-- str.DEDH:
            0x004067d3     .string "DEDH" ; len=5
            0x004067d8      ff             invalid
            0x004067d9      fff7           push edi
            0x004067db      44             inc esp
            0x004067dc      48             dec eax
            0x004067dd      8885448fffff   mov byte [ebp - 0x70bc], al
            0x004067e3      ff             invalid
            0x004067e4      ff             invalid
            0x004067e5      ff             invalid
            0x004067e6      ff             invalid
            0x004067e7      ff             invalid
            0x004067e8      fff7           push edi
            0x004067ea      84444488       test byte [esp + eax*2 - 0x78], al
            0x004067ee      888877000000   mov byte [eax + 0x77], cl
            0x004067f4      7777           ja 0x40686d
            0x004067f6      7888           js 0x406780
            0x004067f8      88448ff8       mov byte [edi + ecx*4 - 8], al
            0x004067fc      44             inc esp
            0x004067fd      8f             invalid
            0x004067fe      ff             invalid
            0x004067ff      ff             invalid
            0x00406800      f8             clc
            ;-- str.DEDG:
            0x00406801     .string "DEDG" ; len=5
            0x00406806      44             inc esp
            0x00406807      47             inc edi
            0x00406808      ff             invalid
            0x00406809      fff7           push edi
            0x0040680b      44             inc esp
            0x0040680c      48             dec eax
            0x0040680d      44             inc esp
            0x0040680e      87ff           xchg edi, edi
            0x00406810      ff             invalid
            0x00406811      fff7           push edi
            0x00406813      44             inc esp
            0x00406814      45             inc ebp
            0x00406815      8888448fffff   mov byte [eax - 0x70bc], cl
            0x0040681b      f7888877ffff.  test dword [eax - 0x8878], 0x454444f7
            0x00406825      888887770000   mov byte [eax + 0x7787], cl
            0x0040682b      007777         add byte [edi + 0x77], dh
            0x0040682e      7788           ja 0x4067b8
            0x00406830      85448ff8       test dword [edi + ecx*4 - 8], eax
            0x00406834      44             inc esp
            0x00406835      7fff           jg 0x406836
            0x00406837      fff4           push esp
            ;-- str.DHDH:
            0x00406839     .string "DHDH" ; len=5
            0x0040683e      44             inc esp
            0x0040683f      4f             dec edi
            0x00406840      ff             invalid
            0x00406841      fff7           push edi
            ;-- str.DEDDH:
            0x00406843     .string "DEDDH" ; len=6
            0x00406849      fff7           push edi
            0x0040684b      44             inc esp
            0x0040684c      45             inc ebp
            0x0040684d      8885448fffff   mov byte [ebp - 0x70bc], al
            0x00406853      f8             clc
            0x00406854      44             inc esp
            0x00406855      44             inc esp
            0x00406856      44             inc esp
            0x00406857      87ff           xchg edi, edi
            0x00406859      ff             invalid
            0x0040685a      f8             clc
            0x0040685b      44             inc esp
            0x0040685c      44             inc esp
            0x0040685d      58             pop eax
            0x0040685e      888777000000   mov byte [edi + 0x77], al
            0x00406864      7777           ja 0x4068dd
            0x00406866      7788           ja 0x4067f0
            0x00406868      85448ff8       test dword [edi + ecx*4 - 8], eax
            0x0040686c      48             dec eax
            0x0040686d      ff             invalid
            0x0040686e      ff             invalid
            0x0040686f  ~   ff8444585444.  inc dword [esp + eax*2 + 0x7f445458]
            ;-- str.DXTD:
            0x00406871     .string "DXTD" ; len=5
            0x00406876      844fff         test byte [edi - 1], cl
            0x00406879      fff7           push edi
            ;-- str.DHDDDD:
            0x0040687b     .string "DHDDDD" ; len=7
            0x00406882      f74445888544.  test dword [ebp + eax*2 - 0x78], 0xff8f4485
            0x0040688a      ff             invalid
            0x0040688b      f8             clc
            0x0040688c     .string "DDDD" ; len=5
            0x00406891      ff             invalid
            0x00406892      ff744448       push dword [esp + eax*2 + 0x48]
            0x00406896      888777000000   mov byte [edi + 0x77], al
            0x0040689c      7777           ja 0x406915
            0x0040689e      7888           js 0x406828
            0x004068a0      85448ff8       test dword [edi + ecx*4 - 8], eax
            0x004068a4      47             inc edi
            0x004068a5      ff             invalid
            0x004068a6      ff             invalid
            0x004068a7      ff444488       inc dword [esp + eax*2 - 0x78]
            0x004068ab      84448ff4       test byte [edi + ecx*4 - 0xc], al
            0x004068af      4f             dec edi
            0x004068b0      ff             invalid
            0x004068b1      fff7           push edi
            0x004068b3      44             inc esp
            0x004068b4      45             inc ebp
            0x004068b5      85444444       test dword [esp + eax*2 + 0x44], eax
            0x004068b9     .string "DDDH" ; len=5
            0x004068bb      44             inc esp
            0x004068bc      48             dec eax
            0x004068bd      8888448fffff   mov byte [eax - 0x70bc], cl
            0x004068c3      f8             clc
            0x004068c4     .string "DDDDO" ; len=6
            0x004068ca      ff             invalid
            0x004068cb      f8             clc
            0x004068cc      44             inc esp
            0x004068cd      48             dec eax
            0x004068ce      888877000000   mov byte [eax + 0x77], cl
            0x004068d4      7777           ja 0x40694d
            0x004068d6      7788           ja 0x406860
            0x004068d8      88444ff8       mov byte [edi + ecx*2 - 8], al
            0x004068dc      8f             invalid
            0x004068dd      ff             invalid
            0x004068de      fff7           push edi
            0x004068e0      44             inc esp
            0x004068e1      45             inc ebp
            0x004068e2      8885444ff84f   mov byte [ebp + 0x4ff84f44], al
            0x004068e8      ff             invalid
            0x004068e9      fff7           push edi
            0x004068eb      44             inc esp
            0x004068ec      45             inc ebp
            0x004068ed  ~   888554444444   mov byte [ebp + 0x44444454], al
            ;-- str.TDDDDH:
            0x004068ef     .string "TDDDDH" ; len=7
            0x004068f6      85448fff       test dword [edi + ecx*4 - 1], eax
            0x004068fa      ff             invalid
            0x004068fb      f8             clc
            ;-- str.DEUDG:
            0x004068fc     .string "DEUDG" ; len=6
            0x00406902      ff             invalid
            0x00406903      ff444588       inc dword [ebp + eax*2 - 0x78]
            0x00406907      877700         xchg dword [edi], esi
            0x0040690a      0000           add byte [eax], al
            0x0040690c      7777           ja 0x406985
            0x0040690e      888885444ff8   mov byte [eax - 0x7b0bb7b], cl
            0x00406914      7fff           jg 0x406915
            0x00406916      fff4           push esp
            0x00406918      44             inc esp
            0x00406919      48             dec eax
            0x0040691a      88854447f74f   mov byte [ebp + 0x4ff74744], al
            0x00406920      ff             invalid
            0x00406921      ff             invalid
            0x00406922      f8             clc
            0x00406923      44             inc esp
            0x00406924      48             dec eax
            0x00406925  ~   888888544444   mov byte [eax + 0x44445488], cl
            ;-- str.TDDDH:
            0x00406928     .string "TDDDH" ; len=6
            0x0040692e      88448fff       mov byte [edi + ecx*4 - 1], al
            0x00406932      ff             invalid
            0x00406933      f8             clc
            0x00406934      44             inc esp
            0x00406935      48             dec eax
            0x00406936      884448ff       mov byte [eax + ecx*2 - 1], al
            0x0040693a      ff             invalid
            0x0040693b      ff8445888877.  inc dword [ebp + eax*2 + 0x778888]
            0x00406942      0000           add byte [eax], al
            0x00406944      7778           ja 0x4069be
            0x00406946      888885444ff7   mov byte [eax - 0x8b0bb7b], cl
            0x0040694c      ff             invalid
            0x0040694d      ff             invalid
            0x0040694e      ff744458       push dword [esp + eax*2 + 0x58]
            0x00406952      88884448ff8f   mov byte [eax - 0x7000b7bc], cl
            0x00406958      ff             invalid
            0x00406959      ff             invalid
            0x0040695a      f8             clc
            0x0040695b      44             inc esp
            0x0040695c      45             inc ebp
            0x0040695d      888885444444   mov byte [eax + 0x44444485], cl
            0x00406963     .string "DDDE" ; len=5
            0x00406965      8885448fffff   mov byte [ebp - 0x70bc], al
            0x0040696b      f8             clc
            0x0040696c      44             inc esp
            0x0040696d      45             inc ebp
            0x0040696e      854448ff       test dword [eax + ecx*2 - 1], eax
            0x00406972      ff             invalid
            0x00406973      ff8448888877.  inc dword [eax + ecx*2 + 0x778888]
            0x0040697a      0000           add byte [eax], al
            0x0040697c      7788           ja 0x406906
            0x0040697e      888888444fff   mov byte [eax - 0xb0bb78], cl
            0x00406984      ff             invalid
            0x00406985      ff             invalid
            0x00406986      ff8444888888.  inc dword [esp + eax*2 + 0x54888888]
            0x0040698d      44             inc esp
            0x0040698e      7fff           jg 0x40698f
            0x00406990      ff             invalid
            0x00406991      ff             invalid
            0x00406992      f8             clc
            0x00406993      44             inc esp
            0x00406994      48             dec eax
            0x00406995  ~   888844444444   mov byte [eax + 0x44444444], cl
            ;-- str.DDDDDX:
            0x00406997     .string "DDDDDX" ; len=7
            0x0040699e      88448fff       mov byte [edi + ecx*4 - 1], al
            0x004069a2      ff             invalid
            0x004069a3      f8             clc
            ;-- str.DHUDG:
            0x004069a4     .string "DHUDG" ; len=6
            0x004069aa      ff             invalid
            0x004069ab      ff444588       inc dword [ebp + eax*2 - 0x78]
            0x004069af      887700         mov byte [edi], dh
            0x004069b2      0000           add byte [eax], al
            0x004069b4      7788           ja 0x40693e
            0x004069b6      888544444fff   mov byte [ebp - 0xb0bbbc], al
            0x004069bc      ff             invalid
            0x004069bd      fff7           push edi
            0x004069bf      44             inc esp
            0x004069c0      45             inc ebp
            0x004069c1      88888884448f   mov byte [eax - 0x70bb7b78], cl
            0x004069c7      ff             invalid
            0x004069c8      ff             invalid
            0x004069c9      ff             invalid
            0x004069ca      f8             clc
            0x004069cb      44             inc esp
            0x004069cc      44             inc esp
            0x004069cd      45             inc ebp
            0x004069ce      8544487f       test dword [eax + ecx*2 + 0x7f], eax
            0x004069d2      7444           je 0x406a18
            0x004069d4      48             dec eax
            0x004069d5      8544448f       test dword [esp + eax*2 - 0x71], eax
            0x004069d9      ff             invalid
            0x004069da      ff             invalid
            0x004069db      f8             clc
            ;-- str.DDDDO:
            0x004069dc     .string "DDDDO" ; len=6
            0x004069e2      fff7           push edi
            0x004069e4      44             inc esp
            0x004069e5      45             inc ebp
            0x004069e6      888777000000   mov byte [edi + 0x77], al
            0x004069ec      7888           js 0x406976
            0x004069ee  ~   88444444       mov byte [esp + eax*2 + 0x44], al
            ;-- str.DDDO:
            0x004069ef     .string "DDDO" ; len=5
            0x004069f4      ff             invalid
            0x004069f5      ff             invalid
            0x004069f6      f8             clc
            0x004069f7      44             inc esp
            0x004069f8      48             dec eax
            0x004069f9      888888854447   mov byte [eax + 0x47448588], cl
            0x004069ff      ff             invalid
            0x00406a00      ff             invalid
            0x00406a01      ff             invalid
            0x00406a02      f8             clc
            ;-- str.DDDTD:
            0x00406a03     .string "DDDTD" ; len=6
            0x00406a09      fff7           push edi
            ;-- str.DEDDD:
            0x00406a0b     .string "DEDDD" ; len=6
            0x00406a11      ff             invalid
            0x00406a12      ff             invalid
            0x00406a13      f8             clc
            0x00406a14     .string "DDDD" ; len=5
            0x00406a19      ff             invalid
            0x00406a1a      ff             invalid
            0x00406a1b      f8             clc
            0x00406a1c      44             inc esp
            0x00406a1d      45             inc ebp
            0x00406a1e      888877000000   mov byte [eax + 0x77], cl
            0x00406a24      7888           js 0x4069ae
            0x00406a26      85444444       test dword [esp + eax*2 + 0x44], eax
            0x00406a2a      8f             invalid
            0x00406a2b      ff             invalid
            0x00406a2c      ff             invalid
            0x00406a2d      ff744458       push dword [esp + eax*2 + 0x58]
            0x00406a31      888888854448   mov byte [eax + 0x48448588], cl
            0x00406a37      ff             invalid
            0x00406a38      ff             invalid
            0x00406a39      fff7           push edi
            0x00406a3b      84444444       test byte [esp + eax*2 + 0x44], al
            0x00406a3f     .string "DDDD" ; len=5
            0x00406a41      ff             invalid
            0x00406a42  ~   ff8444444444.  inc dword [esp + eax*2 - 0x70bbbbbc]
            ;-- str.DDDD:
            0x00406a44     .string "DDDD" ; len=5
            0x00406a49      ff             invalid
            0x00406a4a      ff             invalid
            0x00406a4b      f8             clc
            0x00406a4c      44             inc esp
            0x00406a4d      44             inc esp
            0x00406a4e      44             inc esp
            0x00406a4f      87ff           xchg edi, edi
            0x00406a51      ff             invalid
            0x00406a52      ff744448       push dword [esp + eax*2 + 0x48]
            0x00406a56      888777000000   mov byte [edi + 0x77], al
            0x00406a5c      7888           js 0x4069e6
            0x00406a5e      8444487f       test byte [eax + ecx*2 + 0x7f], al
            0x00406a62      ff             invalid
            0x00406a63      ff             invalid
            0x00406a64      ff             invalid
            0x00406a65      ff8444888887.  inc dword [esp + eax*2 - 0x77787778]
            0x00406a6c      884444ff       mov byte [esp + eax*2 - 1], al
            0x00406a70      ff             invalid
            0x00406a71      ff             invalid
            0x00406a72      ff             invalid
            0x00406a73      ff             invalid
            ;-- str.xDDD:
            0x00406a74     .string "xDDD" ; len=5
            0x00406a79      ff             invalid
            0x00406a7a      ff8444448777.  inc dword [esp + eax*2 - 0x8878bc]
            0x00406a81      ff             invalid
            0x00406a82      fff7           push edi
            0x00406a84      7888           js 0x406a0e
            0x00406a86      77ff           ja 0x406a87
            0x00406a88      ff             invalid
            0x00406a89      fff7           push edi
            0x00406a8b      44             inc esp
            0x00406a8c      44             inc esp
            0x00406a8d      48             dec eax
            0x00406a8e      888777000000   mov byte [edi + 0x77], al
            0x00406a94      888884448fff   mov byte [eax - 0x70bb7c], cl
            0x00406a9a      ff             invalid
            0x00406a9b      ff             invalid
            0x00406a9c      fff7           push edi
            0x00406a9e      44             inc esp
            0x00406a9f      45             inc ebp
            0x00406aa0      888887888854   mov byte [eax + 0x54888887], cl
            0x00406aa6      44             inc esp
            0x00406aa7      8f             invalid
            0x00406aa8      ff             invalid
            0x00406aa9      ff             invalid
            0x00406aaa      ff             invalid
            0x00406aab      ff             invalid
            0x00406aac      ff8444447fff.  inc dword [esp + eax*2 - 0x80bc]
            0x00406ab3      8444447f       test byte [esp + eax*2 + 0x7f], al
            0x00406ab7      ff             invalid
            0x00406ab8      ff             invalid
            0x00406ab9      ff             invalid
            0x00406aba      ff             invalid
            0x00406abb      ff             invalid
            0x00406abc      ff             invalid
            0x00406abd      ff             invalid
            0x00406abe      ff             invalid
            0x00406abf      ff             invalid
            0x00406ac0      fff7           push edi
            0x00406ac2      84444588       test byte [ebp + eax*2 - 0x78], al
            0x00406ac6      888777000000   mov byte [edi + 0x77], al
            0x00406acc      7888           js 0x406a56
            0x00406ace      84448777       test byte [edi + eax*4 + 0x77], al
            0x00406ad2      7777           ja 0x406b4b
            0x00406ad4      888844488888   mov byte [eax - 0x7777b7bc], cl
            0x00406ada      7788           ja 0x406a64
            0x00406adc      888444488888.  mov byte [esp + eax*2 - 0x777777b8], al
            0x00406ae3      877784         xchg dword [edi - 0x7c], esi
            0x00406ae6      44             inc esp
            0x00406ae7      44             inc esp
            0x00406ae8      8f             invalid
            0x00406ae9      fff7           push edi
            0x00406aeb      44             inc esp
            0x00406aec      44             inc esp
            0x00406aed      44             inc esp
            0x00406aee  ~   888888887777   mov byte [eax + 0x77778888], cl
            ;-- str.wwwwww:
            0x00406af2     .string "wwwwww" ; len=7
            ;-- str.DDDH:
            0x00406af9     .string "DDDH" ; len=5
            0x00406afe      887777         mov byte [edi + 0x77], dh
            0x00406b01      00             invalid
            0x00406b02      0000           add byte [eax], al
            0x00406b04      7888           js 0x406a8e
            0x00406b06  ~   84444444       test byte [esp + eax*2 + 0x44], al
            ;-- str.DDDDDDDDX:
            0x00406b07     .string "DDDDDDDDX" ; len=10
            0x00406b11      887778         mov byte [edi + 0x78], dh
            0x00406b14  ~   888444444444.  mov byte [esp + eax*2 + 0x44444444], al
            ;-- str.DDDDDDDDEDD:
            0x00406b16     .string "DDDDDDDDEDD" ; len=12
            0x00406b22  ~   84444544       test byte [ebp + eax*2 + 0x44], al
            ;-- str.DEDDDDDDDDDDDDDDE:
            0x00406b23     .string "DEDDDDDDDDDDDDDDE" ; len=18
            0x00406b35      888877770000   mov byte [eax + 0x7777], cl
            0x00406b3b      007888         add byte [eax - 0x78], bh
            0x00406b3e  ~   88444444       mov byte [esp + eax*2 + 0x44], al
            ;-- str.DDDDDDDD:
            0x00406b3f     .string "DDDDDDDD" ; len=9
            0x00406b48      888777788888   mov byte [edi - 0x77778789], al
            ;-- str.DDDDDDDDHTDDDDXTDDDDDDDDDDDDE:
            0x00406b4e     .string "DDDDDDDDHTDDDDXTDDDDDDDDDDDDE" ; len=30
            0x00406b6c      888887777700   mov byte [eax + 0x777787], cl
            0x00406b72      0000           add byte [eax], al
            0x00406b74      7888           js 0x406afe
            0x00406b76  ~   888544444444   mov byte [ebp + 0x44444444], al
            ;-- str.DDDDDDX:
            0x00406b78     .string "DDDDDDX" ; len=8
            0x00406b80      887777         mov byte [edi + 0x77], dh
            0x00406b83      7888           js 0x406b0d
            0x00406b85  ~   888544444444   mov byte [ebp + 0x44444444], al
            ;-- str.DDDDDDE:
            0x00406b87     .string "DDDDDDE" ; len=8
            0x00406b8f  ~   85444444       test dword [esp + eax*2 + 0x44], eax
            ;-- str.DDDE:
            0x00406b90     .string "DDDE" ; len=5
            0x00406b95  ~   85444444       test dword [esp + eax*2 + 0x44], eax
            ;-- str.DDDDDDDDDDDU:
            0x00406b96     .string "DDDDDDDDDDDU" ; len=13
            0x00406ba3      888888777777   mov byte [eax + 0x77777788], cl
            0x00406ba9      0000           add byte [eax], al
            0x00406bab      007788         add byte [edi - 0x78], dh
            0x00406bae  ~   888885555555   mov byte [eax + 0x55555585], cl
            ;-- str.UUUUX:
            0x00406bb1     .string "UUUUX" ; len=6
            0x00406bb7      888877777788   mov byte [eax - 0x77888889], cl
            0x00406bbd  ~   888885555555   mov byte [eax + 0x55555585], cl
            ;-- str.UUUUU:
            0x00406bc0     .string "UUUUU" ; len=6
            0x00406bc6      888885444588   mov byte [eax - 0x77babb7b], cl
            0x00406bcc  ~   888885555555   mov byte [eax + 0x55555585], cl
            ;-- str.UUUUUUUUUX:
            0x00406bcf     .string "UUUUUUUUUX" ; len=11
            0x00406bda      888888877777   mov byte [eax + 0x77778788], cl
            0x00406be0      7700           ja 0x406be2
            0x00406be2      0000           add byte [eax], al
            0x00406be4      7778           ja 0x406c5e
            0x00406be6      888888888888   mov byte [eax - 0x77777778], cl
            0x00406bec  ~   888888888777   mov byte [eax + 0x77878888], cl
            ;-- str.wwwx:
            0x00406bf1     .string "wwwx" ; len=5
            0x00406bf6      888888888888   mov byte [eax - 0x77777778], cl
            0x00406bfc      888888888885   mov byte [eax - 0x7a777778], cl
            0x00406c02      888888888888   mov byte [eax - 0x77777778], cl
            0x00406c08      888888888888   mov byte [eax - 0x77777778], cl
            0x00406c0e      888888888888   mov byte [eax - 0x77777778], cl
            0x00406c14  ~   877777         xchg dword [edi + 0x77], esi
            ;-- str.wwww:
            0x00406c15     .string "wwww" ; len=5
            0x00406c1a      0000           add byte [eax], al
            0x00406c1c      7777           ja 0x406c95
            0x00406c1e      888888888888   mov byte [eax - 0x77777778], cl
            0x00406c24      888888887777   mov byte [eax + 0x77778888], cl
            0x00406c2a     .string "wwwww" ; len=6
            0x00406c2e      888888888888   mov byte [eax - 0x77777778], cl
            0x00406c34      888888888888   mov byte [eax - 0x77777778], cl
            0x00406c3a      888888888888   mov byte [eax - 0x77777778], cl
            0x00406c40      888888888888   mov byte [eax - 0x77777778], cl
            0x00406c46      888888888887   mov byte [eax - 0x78777778], cl
            ;-- str.wwwww:
            0x00406c4c     .string "wwwww" ; len=6
            0x00406c52      0000           add byte [eax], al
            0x00406c54      7777           ja 0x406ccd
            0x00406c56      7788           ja 0x406be0
            0x00406c58      888888888888   mov byte [eax - 0x77777778], cl
            0x00406c5e      887777         mov byte [edi + 0x77], dh
            0x00406c61     .string "wwwwwww" ; len=8
            0x00406c67      888888888888   mov byte [eax - 0x77777778], cl
            0x00406c6d      888788888888   mov byte [edi - 0x77777778], al
            0x00406c73      888888888888   mov byte [eax - 0x77777778], cl
            0x00406c79      888888888888   mov byte [eax - 0x77777778], cl
            0x00406c7f  ~   888888777777   mov byte [eax + 0x77777788], cl
            ;-- str.wwwwwww:
            0x00406c82     .string "wwwwwww" ; len=8
            0x00406c8a      0000           add byte [eax], al
            ;-- str.wwwwxxxxxwwwwwwwwwwxxxxxxwww:
            0x00406c8c     .string "wwwwxxxxxwwwwwwwwwwxxxxxxwww" ; len=29
            0x00406ca9  ~   888887777778   mov byte [eax + 0x78777787], cl
            ;-- str.wwxxxxxxxxxxwwwwwwwww:
            0x00406cac     .string "wwxxxxxxxxxxwwwwwwwww" ; len=22
            0x00406cc2      0000           add byte [eax], al
            ;-- resource.1:
            0x00406cc4      2800           sub byte [eax], al
            0x00406cc6      0000           add byte [eax], al
            0x00406cc8      2000           and byte [eax], al
            0x00406cca      0000           add byte [eax], al
            0x00406ccc      40             inc eax
            0x00406ccd      0000           add byte [eax], al
            0x00406ccf      0001           add byte [ecx], al
            0x00406cd1      000400         add byte [eax + eax], al
            0x00406cd4      0000           add byte [eax], al
            0x00406cd6      0000           add byte [eax], al
            0x00406cd8      0002           add byte [edx], al
            0x00406cda      0000           add byte [eax], al
            0x00406cdc      0000           add byte [eax], al
            0x00406cde      0000           add byte [eax], al
            0x00406ce0      0000           add byte [eax], al
            0x00406ce2      0000           add byte [eax], al
            0x00406ce4      0000           add byte [eax], al
            0x00406ce6      0000           add byte [eax], al
            0x00406ce8      0000           add byte [eax], al
            0x00406cea      0000           add byte [eax], al
            0x00406cec      0000           add byte [eax], al
            0x00406cee      0000           add byte [eax], al
            0x00406cf0      0000           add byte [eax], al
            0x00406cf2      800000         add byte [eax], 0
            0x00406cf5      800000         add byte [eax], 0
            0x00406cf8      008080008000   add byte [eax + 0x800080], al
            0x00406cfe      0000           add byte [eax], al
            0x00406d00      80             invalid
            0x00406d01      00             invalid
            0x00406d02      800080         add byte [eax], 0x80        ; [0x80:1]=255 ; 128
            0x00406d05      800000         add byte [eax], 0
            0x00406d08      c0c0c0         rol al, 0xc0
            0x00406d0b      008080800000   add byte [eax + 0x8080], al
            0x00406d11      00ff           add bh, bh
            0x00406d13      0000           add byte [eax], al
            0x00406d15      ff00           inc dword [eax]
            0x00406d17      0000           add byte [eax], al
            0x00406d19      ff             invalid
            0x00406d1a      ff00           inc dword [eax]
            0x00406d1c      ff00           inc dword [eax]
            0x00406d1e      0000           add byte [eax], al
            0x00406d20      ff00           inc dword [eax]
            0x00406d22      ff00           inc dword [eax]
            0x00406d24      ff             invalid
            0x00406d25      ff00           inc dword [eax]
            0x00406d27      00ff           add bh, bh
            0x00406d29      ff             invalid
            0x00406d2a      ff00           inc dword [eax]
            0x00406d2c      0000           add byte [eax], al
            0x00406d2e      0000           add byte [eax], al
            0x00406d30      0000           add byte [eax], al
            0x00406d32     .string "3333" ; len=5
            0x00406d37      0000           add byte [eax], al
            0x00406d39      0000           add byte [eax], al
            0x00406d3b      0000           add byte [eax], al
            0x00406d3d      0000           add byte [eax], al
            0x00406d3f      0003           add byte [ebx], al
            ;-- str.3333330:
            0x00406d41     .string "3333330" ; len=8
            0x00406d49      0000           add byte [eax], al
            0x00406d4b      0000           add byte [eax], al
            0x00406d4d      0000           add byte [eax], al
            0x00406d4f      033b           add edi, dword [ebx]
            0x00406d51      bbbbbbbbbb     mov ebx, 0xbbbbbbbb
            0x00406d56      3333           xor esi, dword [ebx]
            0x00406d58      3000           xor byte [eax], al
            0x00406d5a      0000           add byte [eax], al
            0x00406d5c      0000           add byte [eax], al
            0x00406d5e      0033           add byte [ebx], dh
            0x00406d60      bbbbbbbbbb     mov ebx, 0xbbbbbbbb
            0x00406d65      bbbbb33300     mov ebx, 0x33b3bb
            0x00406d6a      0000           add byte [eax], al
            0x00406d6c      0000           add byte [eax], al
            0x00406d6e      03bbbbbbb000   add edi, dword [ebx + 0xb0bbbb]
            0x00406d74      000b           add byte [ebx], cl
            0x00406d76      bbbb333000     mov ebx, 0x3033bb
            0x00406d7b      0000           add byte [eax], al
            0x00406d7d      003b           add byte [ebx], bh
            0x00406d7f      bbbbb00000     mov ebx, 0xb0bb
            0x00406d84      0000           add byte [eax], al
            0x00406d86      0bbbbb330000   or edi, dword [ebx + 0x33bb]
            0x00406d8c      0003           add byte [ebx], al
            0x00406d8e      bbbbbb00bb     mov ebx, 0xbb00bbbb
            0x00406d93      bbbbbb00bb     mov ebx, 0xbb00bbbb
            0x00406d98      bbb3300000     mov ebx, 0x30b3
            0x00406d9d      33bbbbb0bbbb   xor edi, dword [ebx - 0x44444f45]
            0x00406da3      bbbbbbbb0b     mov ebx, 0xbbbbbbb
            0x00406da8      bbb3330000     mov ebx, 0x33b3
            0x00406dad      3bbbbb00bbbb   cmp edi, dword [ebx - 0x4444ff45]
            0x00406db3      bbbbbbbb00     mov ebx, 0xbbbbbb
            0x00406db8      bbbb330003     mov ebx, 0x30033bb
            0x00406dbd      bbbbb00bbb     mov ebx, 0xbb0bb0bb
            0x00406dc2      bbbbbbbbbb     mov ebx, 0xbbbbbbbb
            0x00406dc7      b00b           mov al, 0xb                 ; 11
            0x00406dc9      bbb33003bb     mov ebx, 0xbb0330b3
            0x00406dce      bbb0bbbbbb     mov ebx, 0xbbbbbbb0
            0x00406dd3      bbbbbbbbbb     mov ebx, 0xbbbbbbbb
            0x00406dd8      0bbbb33003bb   or edi, dword [ebx - 0x44fccf4d]
            0x00406dde      bbb0bbbbbb     mov ebx, 0xbbbbbbb0
            0x00406de3      bbbbbbbbbb     mov ebx, 0xbbbbbbbb
            0x00406de8      0bbbb3303bbb   or edi, dword [ebx - 0x44c4cf4d]
            0x00406dee      bb0bbbbbbb     mov ebx, 0xbbbbbb0b
            0x00406df3      bbbbbbbbbb     mov ebx, 0xbbbbbbbb
            0x00406df8      b0bb           mov al, 0xbb                ; 187
            0x00406dfa      bb333bb00b     mov ebx, 0xbb03b33
            0x00406dff      0b             invalid
            0x00406e00      bb             invalid
            0x00406e01      bb             invalid
            0x00406e02      bbbbbbbbbb     mov ebx, 0xbbbbbbbb
            0x00406e07      bbb0b00b33     mov ebx, 0x330bb0b0
            0x00406e0c      3b03           cmp eax, dword [ebx]
            0x00406e0e      30bbbbbbbbbb   xor byte [ebx - 0x44444445], bh
            0x00406e14      bbbbbbbbbb     mov ebx, 0xbbbbbbbb
            0x00406e19      0330           add esi, dword [eax]
            0x00406e1b      333b           xor edi, dword [ebx]
            0x00406e1d      bbb30bbbbb     mov ebx, 0xbbbb0bb3
            0x00406e22      bbbbbbbbbb     mov ebx, 0xbbbbbbbb
            0x00406e27      bbb0bbbb33     mov ebx, 0x33bbbbb0
            0x00406e2c      3bbbb30bbbbb   cmp edi, dword [ebx - 0x4444f44d]
            0x00406e32      bbbbbbbbbb     mov ebx, 0xbbbbbbbb
            0x00406e37      bbb0bbbb33     mov ebx, 0x33bbbbb0
            0x00406e3c      3bbbb0bbbbb0   cmp edi, dword [ebx - 0x4f444450]
            0x00406e42      0bbbbbb00bbb   or edi, dword [ebx - 0x44f44f45]
            0x00406e48      bb0bbb333b     mov ebx, 0x3b33bb0b
            0x00406e4d      bbbbbbbb00     mov ebx, 0xbbbbbb
            0x00406e52      00bbbb0000bb   add byte [ebx - 0x44ffff45], bh
            0x00406e58      bbbbbb333b     mov ebx, 0x3b33bbbb
            0x00406e5d      bbbbbbbb00     mov ebx, 0xbbbbbb
            0x00406e62      00bbbb0000bb   add byte [ebx - 0x44ffff45], bh
            0x00406e68      bbbbbb3303     mov ebx, 0x333bbbb
            0x00406e6d      bbbbbbb000     mov ebx, 0xb0bbbb
            0x00406e72      00bbbb00000b   add byte [ebx + 0xb0000bb], bh
            0x00406e78      bbbbbb3003     mov ebx, 0x330bbbb
            0x00406e7d      bbbbbbb000     mov ebx, 0xb0bbbb
            0x00406e82      00bbbb00000b   add byte [ebx + 0xb0000bb], bh
            0x00406e88      bbbbbb3003     mov ebx, 0x330bbbb
            0x00406e8d      bbbbbbb000     mov ebx, 0xb0bbbb
            0x00406e92      0bbbbbb0000b   or edi, dword [ebx + 0xb00b0bb]
            0x00406e98      bbbbbb3000     mov ebx, 0x30bbbb
            0x00406e9d      3bbbbbb0000b   cmp edi, dword [ebx + 0xb00b0bb]
            0x00406ea3      bbbbb0000b     mov ebx, 0xb00b0bb
            0x00406ea8      bbbbb30000     mov ebx, 0xb3bb
            0x00406ead      33bbbbbb00bb   xor edi, dword [ebx - 0x44ff4445]
            0x00406eb3      bbbbbb00bb     mov ebx, 0xbb00bbbb
            0x00406eb8      bbbb330000     mov ebx, 0x33bb
            0x00406ebd      03bbbbbbbbbb   add edi, dword [ebx - 0x44444445]
            0x00406ec3      bbbbbbbbbb     mov ebx, 0xbbbbbbbb
            0x00406ec8      bbbb300000     mov ebx, 0x30bb
            0x00406ecd      003b           add byte [ebx], bh
            0x00406ecf      bbbbbbbbbb     mov ebx, 0xbbbbbbbb
            0x00406ed4      bbbbbbbbbb     mov ebx, 0xbbbbbbbb
            0x00406ed9      b300           mov bl, 0
            0x00406edb      0000           add byte [eax], al
            0x00406edd      0003           add byte [ebx], al
            0x00406edf      bbbbbbbbbb     mov ebx, 0xbbbbbbbb
            0x00406ee4      bbbbbbbbbb     mov ebx, 0xbbbbbbbb
            0x00406ee9      3000           xor byte [eax], al
            0x00406eeb      0000           add byte [eax], al
            0x00406eed      0000           add byte [eax], al
            0x00406eef      33bbbbbbbbbb   xor edi, dword [ebx - 0x44444445]
            0x00406ef5      bbbbbb3300     mov ebx, 0x33bbbb
            0x00406efa      0000           add byte [eax], al
            0x00406efc      0000           add byte [eax], al
            0x00406efe      0003           add byte [ebx], al
            0x00406f00      3b             invalid
            0x00406f01      bb             invalid
            0x00406f02      bbbbbbbbbb     mov ebx, 0xbbbbbbbb
            0x00406f07      b330           mov bl, 0x30                ; '0' ; 48
            0x00406f09      0000           add byte [eax], al
            0x00406f0b      0000           add byte [eax], al
            0x00406f0d      0000           add byte [eax], al
            0x00406f0f      0003           add byte [ebx], al
            0x00406f11      33bbbbbbbb33   xor edi, dword [ebx + 0x33bbbbbb]
            0x00406f17      3000           xor byte [eax], al
            0x00406f19      0000           add byte [eax], al
            0x00406f1b      0000           add byte [eax], al
            0x00406f1d      0000           add byte [eax], al
            0x00406f1f      0000           add byte [eax], al
            0x00406f21  ~   0033           add byte [ebx], dh
            ;-- str.3333:
            0x00406f22     .string "3333" ; len=5
            0x00406f27      0000           add byte [eax], al
            0x00406f29      0000           add byte [eax], al
            0x00406f2b      0000           add byte [eax], al
            0x00406f2d      0000           add byte [eax], al
            0x00406f2f      0000           add byte [eax], al
            0x00406f31      0000           add byte [eax], al
            0x00406f33      0000           add byte [eax], al
            0x00406f35      0000           add byte [eax], al
            0x00406f37      0000           add byte [eax], al
            0x00406f39      0000           add byte [eax], al
            0x00406f3b      0000           add byte [eax], al
            0x00406f3d      0000           add byte [eax], al
            0x00406f3f      0000           add byte [eax], al
            0x00406f41      0000           add byte [eax], al
            0x00406f43      0000           add byte [eax], al
            0x00406f45      0000           add byte [eax], al
            0x00406f47      0000           add byte [eax], al
            0x00406f49      0000           add byte [eax], al
            0x00406f4b      0000           add byte [eax], al
            0x00406f4d      0000           add byte [eax], al
            0x00406f4f      0000           add byte [eax], al
            0x00406f51      0000           add byte [eax], al
            0x00406f53      0000           add byte [eax], al
            0x00406f55      0000           add byte [eax], al
            0x00406f57      0000           add byte [eax], al
            0x00406f59      0000           add byte [eax], al
            0x00406f5b      0000           add byte [eax], al
            0x00406f5d      0000           add byte [eax], al
            0x00406f5f      0000           add byte [eax], al
            0x00406f61      0000           add byte [eax], al
            0x00406f63      0000           add byte [eax], al
            0x00406f65      0000           add byte [eax], al
            0x00406f67      0000           add byte [eax], al
            0x00406f69      0000           add byte [eax], al
            0x00406f6b      0000           add byte [eax], al
            0x00406f6d      0000           add byte [eax], al
            0x00406f6f      0000           add byte [eax], al
            0x00406f71      0000           add byte [eax], al
            0x00406f73      0000           add byte [eax], al
            0x00406f75      0000           add byte [eax], al
            0x00406f77      0000           add byte [eax], al
            0x00406f79      0000           add byte [eax], al
            0x00406f7b      0000           add byte [eax], al
            0x00406f7d      0000           add byte [eax], al
            0x00406f7f      0000           add byte [eax], al
            0x00406f81      0000           add byte [eax], al
            0x00406f83      0000           add byte [eax], al
            0x00406f85      0000           add byte [eax], al
            0x00406f87      0000           add byte [eax], al
            0x00406f89      0000           add byte [eax], al
            0x00406f8b      0000           add byte [eax], al
            0x00406f8d      0000           add byte [eax], al
            0x00406f8f      0000           add byte [eax], al
            0x00406f91      0000           add byte [eax], al
            0x00406f93      0000           add byte [eax], al
            0x00406f95      0000           add byte [eax], al
            0x00406f97      0000           add byte [eax], al
            0x00406f99      0000           add byte [eax], al
            0x00406f9b      0000           add byte [eax], al
            0x00406f9d      0000           add byte [eax], al
            0x00406f9f      0000           add byte [eax], al
            0x00406fa1      0000           add byte [eax], al
            0x00406fa3      0000           add byte [eax], al
            0x00406fa5      0000           add byte [eax], al
            0x00406fa7      0000           add byte [eax], al
            0x00406fa9      0000           add byte [eax], al
            0x00406fab  ~   0000           add byte [eax], al
            ;-- resource.2:
            0x00406fac      0000           add byte [eax], al
            0x00406fae      0000           add byte [eax], al
            0x00406fb0      1000           adc byte [eax], al
            ;-- str.File:
            0x00406fb2     .string "&File" ; len=12
            0x00406fbe  ~   800065         add byte [eax], 0x65        ; [0x65:1]=255 ; 101
            ;-- str.eExit:
            0x00406fc0     .string "eE&xit" ; len=14
            0x00406fce      90             nop
            0x00406fcf  ~   0026           add byte [esi], ah
            ;-- str.Help:
            0x00406fd0     .string "&Help" ; len=12
            0x00406fdc      0000           add byte [eax], al
            ;-- str.fRegister:
            0x00406fde     .string "fRegister" ; len=20
            0x00406ff2  ~   800067         add byte [eax], 0x67        ; [0x67:1]=255 ; 103
            ;-- str.gAbout:
            0x00406ff4     .string "g&About" ; len=16
            ;-- resource.3:
            0x00407004      c402           les eax, [edx]
            0x00407006      c8100000       enter 0x10, 0               ; 16
            0x0040700a      0000           add byte [eax], al
            0x0040700c      050028001d     add eax, 0x1d002800
            0x00407011      0080004b0000   add byte [eax + 0x4b00], al
            0x00407017      0000           add byte [eax], al
            0x00407019  ~   004100         add byte [ecx], al
            ;-- str.About:
            0x0040701a     .string "About" ; len=12
            ;-- str._nTimes_New_Roman:
            0x00407026     .string "\nTimes New Roman" ; len=34
            0x00407048      0000           add byte [eax], al
            0x0040704a      025000         add dl, byte [eax]
            0x0040704d      0000           add byte [eax], al
            0x0040704f      002b           add byte [ebx], ch
            0x00407051      0005002a0007   add byte [0x7002a00], al    ; [0x7002a00:1]=255
            0x00407057      00ff           add bh, bh
            0x00407059      ff             invalid
            0x0040705a      ff             invalid
            0x0040705b  ~   ff8200430072   inc dword [edx + 0x72004300]
            ;-- str.CrackMe_v1.0:
            0x0040705e     .string "CrackMe v1.0" ; len=26
            0x00407078      0000           add byte [eax], al
            0x0040707a      0000           add byte [eax], al
            0x0040707c      0000           add byte [eax], al
            0x0040707e      015000         add dword [eax], edx
            0x00407081      0000           add byte [eax], al
            0x00407083  ~   002e           add byte [esi], ch
            ;-- str..___r:
            0x00407084     .string ".;$\r" ; len=9
            0x0040708d      03ff           add edi, edi
            0x0040708f      ff80004f004b   inc dword [eax + 0x4b004f00]
            0x00407095      0000           add byte [eax], al
            0x00407097      0000           add byte [eax], al
            0x00407099      0000           add byte [eax], al
            0x0040709b      0000           add byte [eax], al
            0x0040709d      0002           add byte [edx], al
            0x0040709f      50             push eax
            0x004070a0      0000           add byte [eax], al
            0x004070a2      0000           add byte [eax], al
            0x004070a4      16             push ss
            0x004070a5      0010           add byte [eax], dl
            0x004070a7      00540008       add byte [eax + eax + 8], dl
            0x004070ab      00ff           add bh, bh
            0x004070ad      ff             invalid
            0x004070ae      ff             invalid
            0x004070af  ~   ff8200570072   inc dword [edx + 0x72005700]
            ;-- str.Written_by_Cruehead___MiB:
            0x004070b2     .string "Written by Cruehead / MiB" ; len=52
            0x004070e6      0000           add byte [eax], al
            0x004070e8      0000           add byte [eax], al
            0x004070ea      025000         add dl, byte [eax]
            0x004070ed      0000           add byte [eax], al
            0x004070ef  ~   0009           add byte [ecx], cl
            ;-- str._t_m_t:
            0x004070f0     .string "\t!m\t" ; len=10
            0x004070fa      ff             invalid
            0x004070fb  ~   ff8200490066   inc dword [edx + 0x66004900]
            ;-- str.If_you_fail__mail_me_for_the_solution_:
            0x004070fe     .string "If you fail, mail me for the solution!" ; len=78
            0x0040714c      0000           add byte [eax], al
            0x0040714e      0000           add byte [eax], al
            0x00407150      0000           add byte [eax], al
            0x00407152      025000         add dl, byte [eax]
            0x00407155      0000           add byte [eax], al
            0x00407157      0016           add byte [esi], dl
            0x00407159      002c00         add byte [eax + eax], ch
            0x0040715c      54             push esp
            0x0040715d      0008           add byte [eax], cl
            0x0040715f      00ff           add bh, bh
            0x00407161      ff             invalid
            0x00407162      ff             invalid
            0x00407163  ~   ff8200630072   inc dword [edx + 0x72006300]
            ;-- str.cruehead__hotmail.com:
            0x00407166     .string "cruehead_@hotmail.com" ; len=44
            0x00407192      0000           add byte [eax], al
            ;-- resource.4:
            0x00407194      c400           les eax, [eax]
            0x00407196      c8100000       enter 0x10, 0               ; 16
            0x0040719a      0000           add byte [eax], al
            0x0040719c      06             push es
            0x0040719d      001400         add byte [eax + eax], dl
            0x004071a0      1400           adc al, 0
            0x004071a2      8e00           mov es, word [eax]
            0x004071a4      51             push ecx
            0x004071a5      0000           add byte [eax], al
            0x004071a7      0000           add byte [eax], al
            0x004071a9  ~   005200         add byte [edx], dl
            ;-- str.Register:
            0x004071aa     .string "Register" ; len=18
            ;-- str._nBook_Antiqua:
            0x004071bc     .string "\nBook Antiqua" ; len=28
            0x004071d8      800081         add byte [eax], 0x81        ; [0x81:1]=255 ; 129
            0x004071db      50             push eax
            0x004071dc      0000           add byte [eax], al
            0x004071de      0000           add byte [eax], al
            0x004071e0      2c00           sub al, 0
            0x004071e2      0e             push cs
            0x004071e3      004200         add byte [edx], al
            0x004071e6      0b00           or eax, dword [eax]
            0x004071e8      e803ffff81     call 0x824070f0
            0x004071ed      0000           add byte [eax], al
            0x004071ef      0000           add byte [eax], al
            0x004071f1      0000           add byte [eax], al
            0x004071f3      008000815000   add byte [eax + 0x508100], al
            0x004071f9      0000           add byte [eax], al
            0x004071fb      002c00         add byte [eax + eax], ch
            0x004071fe      1f             pop ds
            0x004071ff      004200         add byte [edx], al
            0x00407202      0b00           or eax, dword [eax]
            0x00407204      e903ffff81     jmp 0x8240710c
            0x00407209      0000           add byte [eax], al
            0x0040720b      0000           add byte [eax], al
            0x0040720d      0000           add byte [eax], al
            0x0040720f      0000           add byte [eax], al
            0x00407211      0001           add byte [ecx], al
            0x00407213      50             push eax
            0x00407214      0000           add byte [eax], al
            0x00407216      0000           add byte [eax], al
            0x00407218      1200           adc al, byte [eax]
            0x0040721a      37             aaa
            0x0040721b      002a           add byte [edx], ch
            0x0040721d      000f           add byte [edi], cl
            0x0040721f      00ea           add dl, ch
            0x00407221      03ff           add edi, edi
            0x00407223      ff80004f004b   inc dword [eax + 0x4b004f00]
            0x00407229      0000           add byte [eax], al
            0x0040722b      0000           add byte [eax], al
            0x0040722d      0000           add byte [eax], al
            0x0040722f      0000           add byte [eax], al
            0x00407231      0001           add byte [ecx], al
            0x00407233      50             push eax
            0x00407234      0000           add byte [eax], al
            0x00407236      0000           add byte [eax], al
            0x00407238      50             push eax
            0x00407239      0037           add byte [edi], dh
            0x0040723b      002a           add byte [edx], ch
            0x0040723d      000f           add byte [edi], cl
            0x0040723f      00eb           add bl, ch
            0x00407241      03ff           add edi, edi
            0x00407243  ~   ff8000430061   inc dword [eax + 0x61004300]
            ;-- str.Cancel:
            0x00407246     .string "Cancel" ; len=14
            0x00407254      0000           add byte [eax], al
            0x00407256      0000           add byte [eax], al
            0x00407258      0000           add byte [eax], al
            0x0040725a      025000         add dl, byte [eax]
            0x0040725d      0000           add byte [eax], al
            0x0040725f      000a           add byte [edx], cl
            0x00407261      0010           add byte [eax], dl
            0x00407263      001c00         add byte [eax + eax], bl
            0x00407266      0a00           or al, byte [eax]
            0x00407268      ff             invalid
            0x00407269      ff             invalid
            0x0040726a      ff             invalid
            0x0040726b  ~   ff82004e0061   inc dword [edx + 0x61004e00]
            ;-- str.Name:
            0x0040726e     .string "Name" ; len=10
            0x00407278      0000           add byte [eax], al
            0x0040727a      0000           add byte [eax], al
            0x0040727c      0000           add byte [eax], al
            0x0040727e      025000         add dl, byte [eax]
            0x00407281      0000           add byte [eax], al
            0x00407283      000a           add byte [edx], cl
            0x00407285      0021           add byte [ecx], ah
            0x00407287      001c00         add byte [eax + eax], bl
            0x0040728a      0a00           or al, byte [eax]
            0x0040728c      ff             invalid
            0x0040728d      ff             invalid
            0x0040728e      ff             invalid
            0x0040728f  ~   ff8200530065   inc dword [edx + 0x65005300]
            ;-- str.Serial:
            0x00407292     .string "Serial" ; len=14
            0x004072a0      0000           add byte [eax], al
            0x004072a2      0000           add byte [eax], al
            ;-- resource.5:
            0x004072a4      0000           add byte [eax], al
            0x004072a6      0100           add dword [eax], eax
            0x004072a8      0100           add dword [eax], eax
            0x004072aa      2020           and byte [eax], ah
            0x004072ac      1000           adc byte [eax], al
            0x004072ae      0100           add dword [eax], eax
            0x004072b0      0400           add al, 0
            0x004072b2      e802000001     call 0x14072b9
            0x004072b7      0000           add byte [eax], al
            0x004072b9      0000           add byte [eax], al
            0x004072bb      0000           add byte [eax], al
            0x004072bd      0000           add byte [eax], al
            0x004072bf      0000           add byte [eax], al
            0x004072c1      0000           add byte [eax], al
            0x004072c3      0000           add byte [eax], al
            0x004072c5      0000           add byte [eax], al
            0x004072c7      0000           add byte [eax], al
            0x004072c9      0000           add byte [eax], al
            0x004072cb      0000           add byte [eax], al
            0x004072cd      0000           add byte [eax], al
            0x004072cf      0000           add byte [eax], al
            0x004072d1      0000           add byte [eax], al
            0x004072d3      0000           add byte [eax], al
            0x004072d5      0000           add byte [eax], al
            0x004072d7      0000           add byte [eax], al
            0x004072d9      0000           add byte [eax], al
            0x004072db      0000           add byte [eax], al
            0x004072dd      0000           add byte [eax], al
            0x004072df      0000           add byte [eax], al
            0x004072e1      0000           add byte [eax], al
            0x004072e3      0000           add byte [eax], al
            0x004072e5      0000           add byte [eax], al
            0x004072e7      0000           add byte [eax], al
            0x004072e9      0000           add byte [eax], al
            0x004072eb      0000           add byte [eax], al
            0x004072ed      0000           add byte [eax], al
            0x004072ef      0000           add byte [eax], al
            0x004072f1      0000           add byte [eax], al
            0x004072f3      0000           add byte [eax], al
            0x004072f5      0000           add byte [eax], al
            0x004072f7      0000           add byte [eax], al
            0x004072f9      0000           add byte [eax], al
            0x004072fb      0000           add byte [eax], al
            0x004072fd      0000           add byte [eax], al
            0x004072ff      0000           add byte [eax], al
            0x00407301      0000           add byte [eax], al
            0x00407303      0000           add byte [eax], al
            0x00407305      0000           add byte [eax], al
            0x00407307      0000           add byte [eax], al
            0x00407309      0000           add byte [eax], al
            0x0040730b      0000           add byte [eax], al
            0x0040730d      0000           add byte [eax], al
            0x0040730f      0000           add byte [eax], al
            0x00407311      0000           add byte [eax], al
            0x00407313      0000           add byte [eax], al
            0x00407315      0000           add byte [eax], al
            0x00407317      0000           add byte [eax], al
            0x00407319      0000           add byte [eax], al
            0x0040731b      0000           add byte [eax], al
            0x0040731d      0000           add byte [eax], al
            0x0040731f      0000           add byte [eax], al
            0x00407321      0000           add byte [eax], al
            0x00407323      0000           add byte [eax], al
            0x00407325      0000           add byte [eax], al
            0x00407327      0000           add byte [eax], al
            0x00407329      0000           add byte [eax], al
            0x0040732b      0000           add byte [eax], al
            0x0040732d      0000           add byte [eax], al
            0x0040732f      0000           add byte [eax], al
            0x00407331      0000           add byte [eax], al
            0x00407333      0000           add byte [eax], al
            0x00407335      0000           add byte [eax], al
            0x00407337      0000           add byte [eax], al
            0x00407339      0000           add byte [eax], al
            0x0040733b      0000           add byte [eax], al
            0x0040733d      0000           add byte [eax], al
            0x0040733f      0000           add byte [eax], al
            0x00407341      0000           add byte [eax], al
            0x00407343      0000           add byte [eax], al
            0x00407345      0000           add byte [eax], al
            0x00407347      0000           add byte [eax], al
            0x00407349      0000           add byte [eax], al
            0x0040734b      0000           add byte [eax], al
            0x0040734d      0000           add byte [eax], al
            0x0040734f      0000           add byte [eax], al
            0x00407351      0000           add byte [eax], al
            0x00407353      00             invalid
            0x00407354      0000           add byte [eax], al
            0x00407356      0000           add byte [eax], al
            0x00407358      0000           add byte [eax], al
            0x0040735a      0000           add byte [eax], al
            0x0040735c      0000           add byte [eax], al
            0x0040735e      0000           add byte [eax], al
            0x00407360      0000           add byte [eax], al
            0x00407362      0000           add byte [eax], al
            0x00407364      0000           add byte [eax], al
            0x00407366      0000           add byte [eax], al
            0x00407368      0000           add byte [eax], al
            0x0040736a      0000           add byte [eax], al
            0x0040736c      0000           add byte [eax], al
            0x0040736e      0000           add byte [eax], al
            0x00407370      0000           add byte [eax], al
            0x00407372      0000           add byte [eax], al
            0x00407374      0000           add byte [eax], al
            0x00407376      0000           add byte [eax], al
            0x00407378      0000           add byte [eax], al
            0x0040737a      0000           add byte [eax], al
            0x0040737c      0000           add byte [eax], al
            0x0040737e      0000           add byte [eax], al
            0x00407380      0000           add byte [eax], al
            0x00407382      0000           add byte [eax], al
            0x00407384      0000           add byte [eax], al
            0x00407386      0000           add byte [eax], al
            0x00407388      0000           add byte [eax], al
            0x0040738a      0000           add byte [eax], al
            0x0040738c      0000           add byte [eax], al
            0x0040738e      0000           add byte [eax], al
            0x00407390      0000           add byte [eax], al
            0x00407392      0000           add byte [eax], al
            0x00407394      0000           add byte [eax], al
            0x00407396      0000           add byte [eax], al
            0x00407398      0000           add byte [eax], al
            0x0040739a      0000           add byte [eax], al
            0x0040739c      0000           add byte [eax], al
            0x0040739e      0000           add byte [eax], al
            0x004073a0      0000           add byte [eax], al
            0x004073a2      0000           add byte [eax], al
            0x004073a4      0000           add byte [eax], al
            0x004073a6      0000           add byte [eax], al
            0x004073a8      0000           add byte [eax], al
            0x004073aa      0000           add byte [eax], al
            0x004073ac      0000           add byte [eax], al
            0x004073ae      0000           add byte [eax], al
            0x004073b0      0000           add byte [eax], al
            0x004073b2      0000           add byte [eax], al
            0x004073b4      0000           add byte [eax], al
            0x004073b6      0000           add byte [eax], al
            0x004073b8      0000           add byte [eax], al
            0x004073ba      0000           add byte [eax], al
            0x004073bc      0000           add byte [eax], al
            0x004073be      0000           add byte [eax], al
            0x004073c0      0000           add byte [eax], al
            0x004073c2      0000           add byte [eax], al
            0x004073c4      0000           add byte [eax], al
            0x004073c6      0000           add byte [eax], al
            0x004073c8      0000           add byte [eax], al
            0x004073ca      0000           add byte [eax], al
            0x004073cc      0000           add byte [eax], al
            0x004073ce      0000           add byte [eax], al
            0x004073d0      0000           add byte [eax], al
            0x004073d2      0000           add byte [eax], al
            0x004073d4      0000           add byte [eax], al
            0x004073d6      0000           add byte [eax], al
            0x004073d8      0000           add byte [eax], al
            0x004073da      0000           add byte [eax], al
            0x004073dc      0000           add byte [eax], al
            0x004073de      0000           add byte [eax], al
            0x004073e0      0000           add byte [eax], al
            0x004073e2      0000           add byte [eax], al
            0x004073e4      0000           add byte [eax], al
            0x004073e6      0000           add byte [eax], al
            0x004073e8      0000           add byte [eax], al
            0x004073ea      0000           add byte [eax], al
            0x004073ec      0000           add byte [eax], al
            0x004073ee      0000           add byte [eax], al
            0x004073f0      0000           add byte [eax], al
            0x004073f2      0000           add byte [eax], al
            0x004073f4      0000           add byte [eax], al
            0x004073f6      0000           add byte [eax], al
            0x004073f8      0000           add byte [eax], al
            0x004073fa      0000           add byte [eax], al
            0x004073fc      0000           add byte [eax], al
            0x004073fe      0000           add byte [eax], al
            0x00407400      0000           add byte [eax], al
            0x00407402      0000           add byte [eax], al
            0x00407404      0000           add byte [eax], al
            0x00407406      0000           add byte [eax], al
            0x00407408      0000           add byte [eax], al
            0x0040740a      0000           add byte [eax], al
            0x0040740c      0000           add byte [eax], al
            0x0040740e      0000           add byte [eax], al
            0x00407410      0000           add byte [eax], al
            0x00407412      0000           add byte [eax], al
            0x00407414      0000           add byte [eax], al
            0x00407416      0000           add byte [eax], al
            0x00407418      0000           add byte [eax], al
            0x0040741a      0000           add byte [eax], al
            0x0040741c      0000           add byte [eax], al
            0x0040741e      0000           add byte [eax], al
            0x00407420      0000           add byte [eax], al
            0x00407422      0000           add byte [eax], al
            0x00407424      0000           add byte [eax], al
            0x00407426      0000           add byte [eax], al
            0x00407428      0000           add byte [eax], al
            0x0040742a      0000           add byte [eax], al
            0x0040742c      0000           add byte [eax], al
            0x0040742e      0000           add byte [eax], al
            0x00407430      0000           add byte [eax], al
            0x00407432      0000           add byte [eax], al
            0x00407434      0000           add byte [eax], al
            0x00407436      0000           add byte [eax], al
            0x00407438      0000           add byte [eax], al
            0x0040743a      0000           add byte [eax], al
            0x0040743c      0000           add byte [eax], al
            0x0040743e      0000           add byte [eax], al
            0x00407440      0000           add byte [eax], al
            0x00407442      0000           add byte [eax], al
            0x00407444      0000           add byte [eax], al
            0x00407446      0000           add byte [eax], al
            0x00407448      0000           add byte [eax], al
            0x0040744a      0000           add byte [eax], al
            0x0040744c      0000           add byte [eax], al
            0x0040744e      0000           add byte [eax], al
            0x00407450      0000           add byte [eax], al
            0x00407452      0000           add byte [eax], al
            0x00407454      0000           add byte [eax], al
            0x00407456      0000           add byte [eax], al
            0x00407458      0000           add byte [eax], al
            0x0040745a      0000           add byte [eax], al
            0x0040745c      0000           add byte [eax], al
            0x0040745e      0000           add byte [eax], al
            0x00407460      0000           add byte [eax], al
            0x00407462      0000           add byte [eax], al
            0x00407464      0000           add byte [eax], al
            0x00407466      0000           add byte [eax], al
            0x00407468      0000           add byte [eax], al
            0x0040746a      0000           add byte [eax], al
            0x0040746c      0000           add byte [eax], al
            0x0040746e      0000           add byte [eax], al
            0x00407470      0000           add byte [eax], al
            0x00407472      0000           add byte [eax], al
            0x00407474      0000           add byte [eax], al
            0x00407476      0000           add byte [eax], al
            0x00407478      0000           add byte [eax], al
            0x0040747a      0000           add byte [eax], al
            0x0040747c      0000           add byte [eax], al
            0x0040747e      0000           add byte [eax], al
            0x00407480      0000           add byte [eax], al
            0x00407482      0000           add byte [eax], al
            0x00407484      0000           add byte [eax], al
            0x00407486      0000           add byte [eax], al
            0x00407488      0000           add byte [eax], al
            0x0040748a      0000           add byte [eax], al
            0x0040748c      0000           add byte [eax], al
            0x0040748e      0000           add byte [eax], al
            0x00407490      0000           add byte [eax], al
            0x00407492      0000           add byte [eax], al
            0x00407494      0000           add byte [eax], al
            0x00407496      0000           add byte [eax], al
            0x00407498      0000           add byte [eax], al
            0x0040749a      0000           add byte [eax], al
            0x0040749c      0000           add byte [eax], al
            0x0040749e      0000           add byte [eax], al
            0x004074a0      0000           add byte [eax], al
            0x004074a2      0000           add byte [eax], al
            0x004074a4      0000           add byte [eax], al
            0x004074a6      0000           add byte [eax], al
            0x004074a8      0000           add byte [eax], al
            0x004074aa      0000           add byte [eax], al
            0x004074ac      0000           add byte [eax], al
            0x004074ae      0000           add byte [eax], al
            0x004074b0      0000           add byte [eax], al
            0x004074b2      0000           add byte [eax], al
            0x004074b4      0000           add byte [eax], al
            0x004074b6      0000           add byte [eax], al
            0x004074b8      0000           add byte [eax], al
            0x004074ba      0000           add byte [eax], al
            0x004074bc      0000           add byte [eax], al
            0x004074be      0000           add byte [eax], al
            0x004074c0      0000           add byte [eax], al
            0x004074c2      0000           add byte [eax], al
            0x004074c4      0000           add byte [eax], al
            0x004074c6      0000           add byte [eax], al
            0x004074c8      0000           add byte [eax], al
            0x004074ca      0000           add byte [eax], al
            0x004074cc      0000           add byte [eax], al
            0x004074ce      0000           add byte [eax], al
            0x004074d0      0000           add byte [eax], al
            0x004074d2      0000           add byte [eax], al
            0x004074d4      0000           add byte [eax], al
            0x004074d6      0000           add byte [eax], al
            0x004074d8      0000           add byte [eax], al
            0x004074da      0000           add byte [eax], al
            0x004074dc      0000           add byte [eax], al
            0x004074de      0000           add byte [eax], al
            0x004074e0      0000           add byte [eax], al
            0x004074e2      0000           add byte [eax], al
            0x004074e4      0000           add byte [eax], al
            0x004074e6      0000           add byte [eax], al
            0x004074e8      0000           add byte [eax], al
            0x004074ea      0000           add byte [eax], al
            0x004074ec      0000           add byte [eax], al
            0x004074ee      0000           add byte [eax], al
            0x004074f0      0000           add byte [eax], al
            0x004074f2      0000           add byte [eax], al
            0x004074f4      0000           add byte [eax], al
            0x004074f6      0000           add byte [eax], al
            0x004074f8      0000           add byte [eax], al
            0x004074fa      0000           add byte [eax], al
            0x004074fc      0000           add byte [eax], al
            0x004074fe      0000           add byte [eax], al
            0x00407500      0000           add byte [eax], al
            0x00407502      0000           add byte [eax], al
            0x00407504      0000           add byte [eax], al
            0x00407506      0000           add byte [eax], al
            0x00407508      0000           add byte [eax], al
            0x0040750a      0000           add byte [eax], al
            0x0040750c      0000           add byte [eax], al
            0x0040750e      0000           add byte [eax], al
            0x00407510      0000           add byte [eax], al
            0x00407512      0000           add byte [eax], al
            0x00407514      0000           add byte [eax], al
            0x00407516      0000           add byte [eax], al
            0x00407518      0000           add byte [eax], al
            0x0040751a      0000           add byte [eax], al
            0x0040751c      0000           add byte [eax], al
            0x0040751e      0000           add byte [eax], al
            0x00407520      0000           add byte [eax], al
            0x00407522      0000           add byte [eax], al
            0x00407524      0000           add byte [eax], al
            0x00407526      0000           add byte [eax], al
            0x00407528      0000           add byte [eax], al
            0x0040752a      0000           add byte [eax], al
            0x0040752c      0000           add byte [eax], al
            0x0040752e      0000           add byte [eax], al
            0x00407530      0000           add byte [eax], al
            0x00407532      0000           add byte [eax], al
            0x00407534      0000           add byte [eax], al
            0x00407536      0000           add byte [eax], al
            0x00407538      0000           add byte [eax], al
            0x0040753a      0000           add byte [eax], al
            0x0040753c      0000           add byte [eax], al
            0x0040753e      0000           add byte [eax], al
            0x00407540      0000           add byte [eax], al
            0x00407542      0000           add byte [eax], al
            0x00407544      0000           add byte [eax], al
            0x00407546      0000           add byte [eax], al
            0x00407548      0000           add byte [eax], al
            0x0040754a      0000           add byte [eax], al
            0x0040754c      0000           add byte [eax], al
            0x0040754e      0000           add byte [eax], al
            0x00407550      0000           add byte [eax], al
            0x00407552      0000           add byte [eax], al
            0x00407554      0000           add byte [eax], al
            0x00407556      0000           add byte [eax], al
            0x00407558      0000           add byte [eax], al
            0x0040755a      0000           add byte [eax], al
            0x0040755c      0000           add byte [eax], al
            0x0040755e      0000           add byte [eax], al
            0x00407560      0000           add byte [eax], al
            0x00407562      0000           add byte [eax], al
            0x00407564      0000           add byte [eax], al
            0x00407566      0000           add byte [eax], al
            0x00407568      0000           add byte [eax], al
            0x0040756a      0000           add byte [eax], al
            0x0040756c      0000           add byte [eax], al
            0x0040756e      0000           add byte [eax], al
            0x00407570      0000           add byte [eax], al
            0x00407572      0000           add byte [eax], al
            0x00407574      0000           add byte [eax], al
            0x00407576      0000           add byte [eax], al
            0x00407578      0000           add byte [eax], al
            0x0040757a      0000           add byte [eax], al
            0x0040757c      0000           add byte [eax], al
            0x0040757e      0000           add byte [eax], al
            0x00407580      0000           add byte [eax], al
            0x00407582      0000           add byte [eax], al
            0x00407584      0000           add byte [eax], al
            0x00407586      0000           add byte [eax], al
            0x00407588      0000           add byte [eax], al
            0x0040758a      0000           add byte [eax], al
            0x0040758c      0000           add byte [eax], al
            0x0040758e      0000           add byte [eax], al
            0x00407590      0000           add byte [eax], al
            0x00407592      0000           add byte [eax], al
            0x00407594      0000           add byte [eax], al
            0x00407596      0000           add byte [eax], al
            0x00407598      0000           add byte [eax], al
            0x0040759a      0000           add byte [eax], al
            0x0040759c      0000           add byte [eax], al
            0x0040759e      0000           add byte [eax], al
            0x004075a0      0000           add byte [eax], al
            0x004075a2      0000           add byte [eax], al
            0x004075a4      0000           add byte [eax], al
            0x004075a6      0000           add byte [eax], al
            0x004075a8      0000           add byte [eax], al
            0x004075aa      0000           add byte [eax], al
            0x004075ac      0000           add byte [eax], al
            0x004075ae      0000           add byte [eax], al
            0x004075b0      0000           add byte [eax], al
            0x004075b2      0000           add byte [eax], al
            0x004075b4      0000           add byte [eax], al
            0x004075b6      0000           add byte [eax], al
            0x004075b8      0000           add byte [eax], al
            0x004075ba      0000           add byte [eax], al
            0x004075bc      0000           add byte [eax], al
            0x004075be      0000           add byte [eax], al
            0x004075c0      0000           add byte [eax], al
            0x004075c2      0000           add byte [eax], al
            0x004075c4      0000           add byte [eax], al
            0x004075c6      0000           add byte [eax], al
            0x004075c8      0000           add byte [eax], al
            0x004075ca      0000           add byte [eax], al
            0x004075cc      0000           add byte [eax], al
            0x004075ce      0000           add byte [eax], al
            0x004075d0      0000           add byte [eax], al
            0x004075d2      0000           add byte [eax], al
            0x004075d4      0000           add byte [eax], al
            0x004075d6      0000           add byte [eax], al
            0x004075d8      0000           add byte [eax], al
            0x004075da      0000           add byte [eax], al
            0x004075dc      0000           add byte [eax], al
            0x004075de      0000           add byte [eax], al
            0x004075e0      0000           add byte [eax], al
            0x004075e2      0000           add byte [eax], al
            0x004075e4      0000           add byte [eax], al
            0x004075e6      0000           add byte [eax], al
            0x004075e8      0000           add byte [eax], al
            0x004075ea      0000           add byte [eax], al
            0x004075ec      0000           add byte [eax], al
            0x004075ee      0000           add byte [eax], al
            0x004075f0      0000           add byte [eax], al
            0x004075f2      0000           add byte [eax], al
            0x004075f4      0000           add byte [eax], al
            0x004075f6      0000           add byte [eax], al
            0x004075f8      0000           add byte [eax], al
            0x004075fa      0000           add byte [eax], al
            0x004075fc      0000           add byte [eax], al
            0x004075fe      0000           add byte [eax], al
            0x00407600      0000           add byte [eax], al
            0x00407602      0000           add byte [eax], al
            0x00407604      0000           add byte [eax], al
            0x00407606      0000           add byte [eax], al
            0x00407608      0000           add byte [eax], al
            0x0040760a      0000           add byte [eax], al
            0x0040760c      0000           add byte [eax], al
            0x0040760e      0000           add byte [eax], al
            0x00407610      0000           add byte [eax], al
            0x00407612      0000           add byte [eax], al
            0x00407614      0000           add byte [eax], al
            0x00407616      0000           add byte [eax], al
            0x00407618      0000           add byte [eax], al
            0x0040761a      0000           add byte [eax], al
            0x0040761c      0000           add byte [eax], al
            0x0040761e      0000           add byte [eax], al
            0x00407620      0000           add byte [eax], al
            0x00407622      0000           add byte [eax], al
            0x00407624      0000           add byte [eax], al
            0x00407626      0000           add byte [eax], al
            0x00407628      0000           add byte [eax], al
            0x0040762a      0000           add byte [eax], al
            0x0040762c      0000           add byte [eax], al
            0x0040762e      0000           add byte [eax], al
            0x00407630      0000           add byte [eax], al
            0x00407632      0000           add byte [eax], al
            0x00407634      0000           add byte [eax], al
            0x00407636      0000           add byte [eax], al
            0x00407638      0000           add byte [eax], al
            0x0040763a      0000           add byte [eax], al
            0x0040763c      0000           add byte [eax], al
            0x0040763e      0000           add byte [eax], al
            0x00407640      0000           add byte [eax], al
            0x00407642      0000           add byte [eax], al
            0x00407644      0000           add byte [eax], al
            0x00407646      0000           add byte [eax], al
            0x00407648      0000           add byte [eax], al
            0x0040764a      0000           add byte [eax], al
            0x0040764c      0000           add byte [eax], al
            0x0040764e      0000           add byte [eax], al
            0x00407650      0000           add byte [eax], al
            0x00407652      0000           add byte [eax], al
            0x00407654      0000           add byte [eax], al
            0x00407656      0000           add byte [eax], al
            0x00407658      0000           add byte [eax], al
            0x0040765a      0000           add byte [eax], al
            0x0040765c      0000           add byte [eax], al
            0x0040765e      0000           add byte [eax], al
            0x00407660      0000           add byte [eax], al
            0x00407662      0000           add byte [eax], al
            0x00407664      0000           add byte [eax], al
            0x00407666      0000           add byte [eax], al
            0x00407668      0000           add byte [eax], al
            0x0040766a      0000           add byte [eax], al
            0x0040766c      0000           add byte [eax], al
            0x0040766e      0000           add byte [eax], al
            0x00407670      0000           add byte [eax], al
            0x00407672      0000           add byte [eax], al
            0x00407674      0000           add byte [eax], al
            0x00407676      0000           add byte [eax], al
            0x00407678      0000           add byte [eax], al
            0x0040767a      0000           add byte [eax], al
            0x0040767c      0000           add byte [eax], al
            0x0040767e      0000           add byte [eax], al
            0x00407680      0000           add byte [eax], al
            0x00407682      0000           add byte [eax], al
            0x00407684      0000           add byte [eax], al
            0x00407686      0000           add byte [eax], al
            0x00407688      0000           add byte [eax], al
            0x0040768a      0000           add byte [eax], al
            0x0040768c      0000           add byte [eax], al
            0x0040768e      0000           add byte [eax], al
            0x00407690      0000           add byte [eax], al
            0x00407692      0000           add byte [eax], al
            0x00407694      0000           add byte [eax], al
            0x00407696      0000           add byte [eax], al
            0x00407698      0000           add byte [eax], al
            0x0040769a      0000           add byte [eax], al
            0x0040769c      0000           add byte [eax], al
            0x0040769e      0000           add byte [eax], al
            0x004076a0      0000           add byte [eax], al
            0x004076a2      0000           add byte [eax], al
            0x004076a4      0000           add byte [eax], al
            0x004076a6      0000           add byte [eax], al
            0x004076a8      0000           add byte [eax], al
            0x004076aa      0000           add byte [eax], al
            0x004076ac      0000           add byte [eax], al
            0x004076ae      0000           add byte [eax], al
            0x004076b0      0000           add byte [eax], al
            0x004076b2      0000           add byte [eax], al
            0x004076b4      0000           add byte [eax], al
            0x004076b6      0000           add byte [eax], al
            0x004076b8      0000           add byte [eax], al
            0x004076ba      0000           add byte [eax], al
            0x004076bc      0000           add byte [eax], al
            0x004076be      0000           add byte [eax], al
            0x004076c0      0000           add byte [eax], al
            0x004076c2      0000           add byte [eax], al
            0x004076c4      0000           add byte [eax], al
            0x004076c6      0000           add byte [eax], al
            0x004076c8      0000           add byte [eax], al
            0x004076ca      0000           add byte [eax], al
            0x004076cc      0000           add byte [eax], al
            0x004076ce      0000           add byte [eax], al
            0x004076d0      0000           add byte [eax], al
            0x004076d2      0000           add byte [eax], al
            0x004076d4      0000           add byte [eax], al
            0x004076d6      0000           add byte [eax], al
            0x004076d8      0000           add byte [eax], al
            0x004076da      0000           add byte [eax], al
            0x004076dc      0000           add byte [eax], al
            0x004076de      0000           add byte [eax], al
            0x004076e0      0000           add byte [eax], al
            0x004076e2      0000           add byte [eax], al
            0x004076e4      0000           add byte [eax], al
            0x004076e6      0000           add byte [eax], al
            0x004076e8      0000           add byte [eax], al
            0x004076ea      0000           add byte [eax], al
            0x004076ec      0000           add byte [eax], al
            0x004076ee      0000           add byte [eax], al
            0x004076f0      0000           add byte [eax], al
            0x004076f2      0000           add byte [eax], al
            0x004076f4      0000           add byte [eax], al
            0x004076f6      0000           add byte [eax], al
            0x004076f8      0000           add byte [eax], al
            0x004076fa      0000           add byte [eax], al
            0x004076fc      0000           add byte [eax], al
            0x004076fe      0000           add byte [eax], al
            0x00407700      0000           add byte [eax], al
            0x00407702      0000           add byte [eax], al
            0x00407704      0000           add byte [eax], al
            0x00407706      0000           add byte [eax], al
            0x00407708      0000           add byte [eax], al
            0x0040770a      0000           add byte [eax], al
            0x0040770c      0000           add byte [eax], al
            0x0040770e      0000           add byte [eax], al
            0x00407710      0000           add byte [eax], al
            0x00407712      0000           add byte [eax], al
            0x00407714      0000           add byte [eax], al
            0x00407716      0000           add byte [eax], al
            0x00407718      0000           add byte [eax], al
            0x0040771a      0000           add byte [eax], al
            0x0040771c      0000           add byte [eax], al
            0x0040771e      0000           add byte [eax], al
            0x00407720      0000           add byte [eax], al
            0x00407722      0000           add byte [eax], al
            0x00407724      0000           add byte [eax], al
            0x00407726      0000           add byte [eax], al
            0x00407728      0000           add byte [eax], al
            0x0040772a      0000           add byte [eax], al
            0x0040772c      0000           add byte [eax], al
            0x0040772e      0000           add byte [eax], al
            0x00407730      0000           add byte [eax], al
            0x00407732      0000           add byte [eax], al
            0x00407734      0000           add byte [eax], al
            0x00407736      0000           add byte [eax], al
            0x00407738      0000           add byte [eax], al
            0x0040773a      0000           add byte [eax], al
            0x0040773c      0000           add byte [eax], al
            0x0040773e      0000           add byte [eax], al
            0x00407740      0000           add byte [eax], al
            0x00407742      0000           add byte [eax], al
            0x00407744      0000           add byte [eax], al
            0x00407746      0000           add byte [eax], al
            0x00407748      0000           add byte [eax], al
            0x0040774a      0000           add byte [eax], al
            0x0040774c      0000           add byte [eax], al
            0x0040774e      0000           add byte [eax], al
            0x00407750      0000           add byte [eax], al
            0x00407752      0000           add byte [eax], al
            0x00407754      0000           add byte [eax], al
            0x00407756      0000           add byte [eax], al
            0x00407758      0000           add byte [eax], al
            0x0040775a      0000           add byte [eax], al
            0x0040775c      0000           add byte [eax], al
            0x0040775e      0000           add byte [eax], al
            0x00407760      0000           add byte [eax], al
            0x00407762      0000           add byte [eax], al
            0x00407764      0000           add byte [eax], al
            0x00407766      0000           add byte [eax], al
            0x00407768      0000           add byte [eax], al
            0x0040776a      0000           add byte [eax], al
            0x0040776c      0000           add byte [eax], al
            0x0040776e      0000           add byte [eax], al
            0x00407770      0000           add byte [eax], al
            0x00407772      0000           add byte [eax], al
            0x00407774      0000           add byte [eax], al
            0x00407776      0000           add byte [eax], al
            0x00407778      0000           add byte [eax], al
            0x0040777a      0000           add byte [eax], al
            0x0040777c      0000           add byte [eax], al
            0x0040777e      0000           add byte [eax], al
            0x00407780      0000           add byte [eax], al
            0x00407782      0000           add byte [eax], al
            0x00407784      0000           add byte [eax], al
            0x00407786      0000           add byte [eax], al
            0x00407788      0000           add byte [eax], al
            0x0040778a      0000           add byte [eax], al
            0x0040778c      0000           add byte [eax], al
            0x0040778e      0000           add byte [eax], al
            0x00407790      0000           add byte [eax], al
            0x00407792      0000           add byte [eax], al
            0x00407794      0000           add byte [eax], al
            0x00407796      0000           add byte [eax], al
            0x00407798      0000           add byte [eax], al
            0x0040779a      0000           add byte [eax], al
            0x0040779c      0000           add byte [eax], al
            0x0040779e      0000           add byte [eax], al
            0x004077a0      0000           add byte [eax], al
            0x004077a2      0000           add byte [eax], al
            0x004077a4      0000           add byte [eax], al
            0x004077a6      0000           add byte [eax], al
            0x004077a8      0000           add byte [eax], al
            0x004077aa      0000           add byte [eax], al
            0x004077ac      0000           add byte [eax], al
            0x004077ae      0000           add byte [eax], al
            0x004077b0      0000           add byte [eax], al
            0x004077b2      0000           add byte [eax], al
            0x004077b4      0000           add byte [eax], al
            0x004077b6      0000           add byte [eax], al
            0x004077b8      0000           add byte [eax], al
            0x004077ba      0000           add byte [eax], al
            0x004077bc      0000           add byte [eax], al
            0x004077be      0000           add byte [eax], al
            0x004077c0      0000           add byte [eax], al
            0x004077c2      0000           add byte [eax], al
            0x004077c4      0000           add byte [eax], al
            0x004077c6      0000           add byte [eax], al
            0x004077c8      0000           add byte [eax], al
            0x004077ca      0000           add byte [eax], al
            0x004077cc      0000           add byte [eax], al
            0x004077ce      0000           add byte [eax], al
            0x004077d0      0000           add byte [eax], al
            0x004077d2      0000           add byte [eax], al
            0x004077d4      0000           add byte [eax], al
            0x004077d6      0000           add byte [eax], al
            0x004077d8      0000           add byte [eax], al
            0x004077da      0000           add byte [eax], al
            0x004077dc      0000           add byte [eax], al
            0x004077de      0000           add byte [eax], al
            0x004077e0      0000           add byte [eax], al
            0x004077e2      0000           add byte [eax], al
            0x004077e4      0000           add byte [eax], al
            0x004077e6      0000           add byte [eax], al
            0x004077e8      0000           add byte [eax], al
            0x004077ea      0000           add byte [eax], al
            0x004077ec      0000           add byte [eax], al
            0x004077ee      0000           add byte [eax], al
            0x004077f0      0000           add byte [eax], al
            0x004077f2      0000           add byte [eax], al
            0x004077f4      0000           add byte [eax], al
            0x004077f6      0000           add byte [eax], al
            0x004077f8      0000           add byte [eax], al
            0x004077fa      0000           add byte [eax], al
            0x004077fc      0000           add byte [eax], al
            0x004077fe      0000           add byte [eax], al
            0x00407800      0000           add byte [eax], al
            0x00407802      0000           add byte [eax], al
            0x00407804      0000           add byte [eax], al
            0x00407806      0000           add byte [eax], al
            0x00407808      0000           add byte [eax], al
            0x0040780a      0000           add byte [eax], al
            0x0040780c      0000           add byte [eax], al
            0x0040780e      0000           add byte [eax], al
            0x00407810      0000           add byte [eax], al
            0x00407812      0000           add byte [eax], al
            0x00407814      0000           add byte [eax], al
            0x00407816      0000           add byte [eax], al
            0x00407818      0000           add byte [eax], al
            0x0040781a      0000           add byte [eax], al
            0x0040781c      0000           add byte [eax], al
            0x0040781e      0000           add byte [eax], al
            0x00407820      0000           add byte [eax], al
            0x00407822      0000           add byte [eax], al
            0x00407824      0000           add byte [eax], al
            0x00407826      0000           add byte [eax], al
            0x00407828      0000           add byte [eax], al
            0x0040782a      0000           add byte [eax], al
            0x0040782c      0000           add byte [eax], al
            0x0040782e      0000           add byte [eax], al
            0x00407830      0000           add byte [eax], al
            0x00407832      0000           add byte [eax], al
            0x00407834      0000           add byte [eax], al
            0x00407836      0000           add byte [eax], al
            0x00407838      0000           add byte [eax], al
            0x0040783a      0000           add byte [eax], al
            0x0040783c      0000           add byte [eax], al
            0x0040783e      0000           add byte [eax], al
            0x00407840      0000           add byte [eax], al
            0x00407842      0000           add byte [eax], al
            0x00407844      0000           add byte [eax], al
            0x00407846      0000           add byte [eax], al
            0x00407848      0000           add byte [eax], al
            0x0040784a      0000           add byte [eax], al
            0x0040784c      0000           add byte [eax], al
            0x0040784e      0000           add byte [eax], al
            0x00407850      0000           add byte [eax], al
            0x00407852      0000           add byte [eax], al
            0x00407854      0000           add byte [eax], al
            0x00407856      0000           add byte [eax], al
            0x00407858      0000           add byte [eax], al
            0x0040785a      0000           add byte [eax], al
            0x0040785c      0000           add byte [eax], al
            0x0040785e      0000           add byte [eax], al
            0x00407860      0000           add byte [eax], al
            0x00407862      0000           add byte [eax], al
            0x00407864      0000           add byte [eax], al
            0x00407866      0000           add byte [eax], al
            0x00407868      0000           add byte [eax], al
            0x0040786a      0000           add byte [eax], al
            0x0040786c      0000           add byte [eax], al
            0x0040786e      0000           add byte [eax], al
            0x00407870      0000           add byte [eax], al
            0x00407872      0000           add byte [eax], al
            0x00407874      0000           add byte [eax], al
            0x00407876      0000           add byte [eax], al
            0x00407878      0000           add byte [eax], al
            0x0040787a      0000           add byte [eax], al
            0x0040787c      0000           add byte [eax], al
            0x0040787e      0000           add byte [eax], al
            0x00407880      0000           add byte [eax], al
            0x00407882      0000           add byte [eax], al
            0x00407884      0000           add byte [eax], al
            0x00407886      0000           add byte [eax], al
            0x00407888      0000           add byte [eax], al
            0x0040788a      0000           add byte [eax], al
            0x0040788c      0000           add byte [eax], al
            0x0040788e      0000           add byte [eax], al
            0x00407890      0000           add byte [eax], al
            0x00407892      0000           add byte [eax], al
            0x00407894      0000           add byte [eax], al
            0x00407896      0000           add byte [eax], al
            0x00407898      0000           add byte [eax], al
            0x0040789a      0000           add byte [eax], al
            0x0040789c      0000           add byte [eax], al
            0x0040789e      0000           add byte [eax], al
            0x004078a0      0000           add byte [eax], al
            0x004078a2      0000           add byte [eax], al
            0x004078a4      0000           add byte [eax], al
            0x004078a6      0000           add byte [eax], al
            0x004078a8      0000           add byte [eax], al
            0x004078aa      0000           add byte [eax], al
            0x004078ac      0000           add byte [eax], al
            0x004078ae      0000           add byte [eax], al
            0x004078b0      0000           add byte [eax], al
            0x004078b2      0000           add byte [eax], al
            0x004078b4      0000           add byte [eax], al
            0x004078b6      0000           add byte [eax], al
            0x004078b8      0000           add byte [eax], al
            0x004078ba      0000           add byte [eax], al
            0x004078bc      0000           add byte [eax], al
            0x004078be      0000           add byte [eax], al
            0x004078c0      0000           add byte [eax], al
            0x004078c2      0000           add byte [eax], al
            0x004078c4      0000           add byte [eax], al
            0x004078c6      0000           add byte [eax], al
            0x004078c8      0000           add byte [eax], al
            0x004078ca      0000           add byte [eax], al
            0x004078cc      0000           add byte [eax], al
            0x004078ce      0000           add byte [eax], al
            0x004078d0      0000           add byte [eax], al
            0x004078d2      0000           add byte [eax], al
            0x004078d4      0000           add byte [eax], al
            0x004078d6      0000           add byte [eax], al
            0x004078d8      0000           add byte [eax], al
            0x004078da      0000           add byte [eax], al
            0x004078dc      0000           add byte [eax], al
            0x004078de      0000           add byte [eax], al
            0x004078e0      0000           add byte [eax], al
            0x004078e2      0000           add byte [eax], al
            0x004078e4      0000           add byte [eax], al
            0x004078e6      0000           add byte [eax], al
            0x004078e8      0000           add byte [eax], al
            0x004078ea      0000           add byte [eax], al
            0x004078ec      0000           add byte [eax], al
            0x004078ee      0000           add byte [eax], al
            0x004078f0      0000           add byte [eax], al
            0x004078f2      0000           add byte [eax], al
            0x004078f4      0000           add byte [eax], al
            0x004078f6      0000           add byte [eax], al
            0x004078f8      0000           add byte [eax], al
            0x004078fa      0000           add byte [eax], al
            0x004078fc      0000           add byte [eax], al
            0x004078fe      0000           add byte [eax], al
            0x00407900      0000           add byte [eax], al
            0x00407902      0000           add byte [eax], al
            0x00407904      0000           add byte [eax], al
            0x00407906      0000           add byte [eax], al
            0x00407908      0000           add byte [eax], al
            0x0040790a      0000           add byte [eax], al
            0x0040790c      0000           add byte [eax], al
            0x0040790e      0000           add byte [eax], al
            0x00407910      0000           add byte [eax], al
            0x00407912      0000           add byte [eax], al
            0x00407914      0000           add byte [eax], al
            0x00407916      0000           add byte [eax], al
            0x00407918      0000           add byte [eax], al
            0x0040791a      0000           add byte [eax], al
            0x0040791c      0000           add byte [eax], al
            0x0040791e      0000           add byte [eax], al
            0x00407920      0000           add byte [eax], al
            0x00407922      0000           add byte [eax], al
            0x00407924      0000           add byte [eax], al
            0x00407926      0000           add byte [eax], al
            0x00407928      0000           add byte [eax], al
            0x0040792a      0000           add byte [eax], al
            0x0040792c      0000           add byte [eax], al
            0x0040792e      0000           add byte [eax], al
            0x00407930      0000           add byte [eax], al
            0x00407932      0000           add byte [eax], al
            0x00407934      0000           add byte [eax], al
            0x00407936      0000           add byte [eax], al
            0x00407938      0000           add byte [eax], al
            0x0040793a      0000           add byte [eax], al
            0x0040793c      0000           add byte [eax], al
            0x0040793e      0000           add byte [eax], al
            0x00407940      0000           add byte [eax], al
            0x00407942      0000           add byte [eax], al
            0x00407944      0000           add byte [eax], al
            0x00407946      0000           add byte [eax], al
            0x00407948      0000           add byte [eax], al
            0x0040794a      0000           add byte [eax], al
            0x0040794c      0000           add byte [eax], al
            0x0040794e      0000           add byte [eax], al
            0x00407950      0000           add byte [eax], al
            0x00407952      0000           add byte [eax], al
            0x00407954      0000           add byte [eax], al
            0x00407956      0000           add byte [eax], al
            0x00407958      0000           add byte [eax], al
            0x0040795a      0000           add byte [eax], al
            0x0040795c      0000           add byte [eax], al
            0x0040795e      0000           add byte [eax], al
            0x00407960      0000           add byte [eax], al
            0x00407962      0000           add byte [eax], al
            0x00407964      0000           add byte [eax], al
            0x00407966      0000           add byte [eax], al
            0x00407968      0000           add byte [eax], al
            0x0040796a      0000           add byte [eax], al
            0x0040796c      0000           add byte [eax], al
            0x0040796e      0000           add byte [eax], al
            0x00407970      0000           add byte [eax], al
            0x00407972      0000           add byte [eax], al
            0x00407974      0000           add byte [eax], al
            0x00407976      0000           add byte [eax], al
            0x00407978      0000           add byte [eax], al
            0x0040797a      0000           add byte [eax], al
            0x0040797c      0000           add byte [eax], al
            0x0040797e      0000           add byte [eax], al
            0x00407980      0000           add byte [eax], al
            0x00407982      0000           add byte [eax], al
            0x00407984      0000           add byte [eax], al
            0x00407986      0000           add byte [eax], al
            0x00407988      0000           add byte [eax], al
            0x0040798a      0000           add byte [eax], al
            0x0040798c      0000           add byte [eax], al
            0x0040798e      0000           add byte [eax], al
            0x00407990      0000           add byte [eax], al
            0x00407992      0000           add byte [eax], al
            0x00407994      0000           add byte [eax], al
            0x00407996      0000           add byte [eax], al
            0x00407998      0000           add byte [eax], al
            0x0040799a      0000           add byte [eax], al
            0x0040799c      0000           add byte [eax], al
            0x0040799e      0000           add byte [eax], al
            0x004079a0      0000           add byte [eax], al
            0x004079a2      0000           add byte [eax], al
            0x004079a4      0000           add byte [eax], al
            0x004079a6      0000           add byte [eax], al
            0x004079a8      0000           add byte [eax], al
            0x004079aa      0000           add byte [eax], al
            0x004079ac      0000           add byte [eax], al
            0x004079ae      0000           add byte [eax], al
            0x004079b0      0000           add byte [eax], al
            0x004079b2      0000           add byte [eax], al
            0x004079b4      0000           add byte [eax], al
            0x004079b6      0000           add byte [eax], al
            0x004079b8      0000           add byte [eax], al
            0x004079ba      0000           add byte [eax], al
            0x004079bc      0000           add byte [eax], al
            0x004079be      0000           add byte [eax], al
            0x004079c0      0000           add byte [eax], al
            0x004079c2      0000           add byte [eax], al
            0x004079c4      0000           add byte [eax], al
            0x004079c6      0000           add byte [eax], al
            0x004079c8      0000           add byte [eax], al
            0x004079ca      0000           add byte [eax], al
            0x004079cc      0000           add byte [eax], al
            0x004079ce      0000           add byte [eax], al
            0x004079d0      0000           add byte [eax], al
            0x004079d2      0000           add byte [eax], al
            0x004079d4      0000           add byte [eax], al
            0x004079d6      0000           add byte [eax], al
            0x004079d8      0000           add byte [eax], al
            0x004079da      0000           add byte [eax], al
            0x004079dc      0000           add byte [eax], al
            0x004079de      0000           add byte [eax], al
            0x004079e0      0000           add byte [eax], al
            0x004079e2      0000           add byte [eax], al
            0x004079e4      0000           add byte [eax], al
            0x004079e6      0000           add byte [eax], al
            0x004079e8      0000           add byte [eax], al
            0x004079ea      0000           add byte [eax], al
            0x004079ec      0000           add byte [eax], al
            0x004079ee      0000           add byte [eax], al
            0x004079f0      0000           add byte [eax], al
            0x004079f2      0000           add byte [eax], al
            0x004079f4      0000           add byte [eax], al
            0x004079f6      0000           add byte [eax], al
            0x004079f8      0000           add byte [eax], al
            0x004079fa      0000           add byte [eax], al
            0x004079fc      0000           add byte [eax], al
            0x004079fe      0000           add byte [eax], al
            0x00407a00      0000           add byte [eax], al
            0x00407a02      0000           add byte [eax], al
            0x00407a04      0000           add byte [eax], al
            0x00407a06      0000           add byte [eax], al
            0x00407a08      0000           add byte [eax], al
            0x00407a0a      0000           add byte [eax], al
            0x00407a0c      0000           add byte [eax], al
            0x00407a0e      0000           add byte [eax], al
            0x00407a10      0000           add byte [eax], al
            0x00407a12      0000           add byte [eax], al
            0x00407a14      0000           add byte [eax], al
            0x00407a16      0000           add byte [eax], al
